MODULE Linux arm64 57399AA1EE2607A34686D5DED7D43C310 libbreakpad-core.so
INFO CODE_ID A19A395726EEA3074686D5DED7D43C317C4E72FC
PUBLIC 27378 0 DumpCallback(google_breakpad::MinidumpDescriptor const&, void*, bool, char*)
PUBLIC 274d8 0 threadDoThings(void*)
PUBLIC 27588 0 tryDump()
PUBLIC 278c0 0 initThreadWaitCrash()
PUBLIC 2797c 0 Java_com_sogou_translate_jni_BreakPadCore_initBreakpadNative
PUBLIC 27b70 0 _JNIEnv::GetStringUTFChars(_jstring*, unsigned char*)
PUBLIC 27c1c 0 google_breakpad::MinidumpDescriptor::MinidumpDescriptor(std::__ndk1::basic_string<char, std::__ndk1::char_traits<char>, std::__ndk1::allocator<char> > const&)
PUBLIC 27d58 0 std::__ndk1::basic_string<char, std::__ndk1::char_traits<char>, std::__ndk1::allocator<char> >::~basic_string()
PUBLIC 27dc8 0 _JNIEnv::ReleaseStringUTFChars(_jstring*, char const*)
PUBLIC 27e18 0 _JNIEnv::NewGlobalRef(_jobject*)
PUBLIC 27e5c 0 google_breakpad::MinidumpDescriptor::~MinidumpDescriptor()
PUBLIC 27ea8 0 JNI_OnLoad
PUBLIC 27fa0 0 _JavaVM::GetEnv(void**, int)
PUBLIC 27fec 0 JNI_OnUnload
PUBLIC 280bc 0 _JNIEnv::DeleteGlobalRef(_jobject*)
PUBLIC 28100 0 _JavaVM::AttachCurrentThread(_JNIEnv**, void*)
PUBLIC 28150 0 _JNIEnv::IsSameObject(_jobject*, _jobject*)
PUBLIC 281a0 0 _JNIEnv::GetObjectClass(_jobject*)
PUBLIC 281e4 0 _JNIEnv::GetMethodID(_jclass*, char const*, char const*)
PUBLIC 28240 0 _JNIEnv::NewStringUTF(char const*)
PUBLIC 28284 0 _JNIEnv::CallVoidMethod(_jobject*, _jmethodID*, ...)
PUBLIC 28388 0 _JNIEnv::DeleteLocalRef(_jobject*)
PUBLIC 283cc 0 _JavaVM::DetachCurrentThread()
PUBLIC 283fc 0 recurse_madness(int)
PUBLIC 28454 0 testCrash1()
PUBLIC 28478 0 testCoffeCacher()
PUBLIC 284f0 0 call_dangerous_function()
PUBLIC 2851c 0 Java_com_sogou_translate_jni_BreakPadCore_go2crash
PUBLIC 28540 0 Java_com_sogou_translate_jni_BreakPadCore_setInterrupteSysNativeCrash
PUBLIC 285a4 0 Java_com_sogou_translate_jni_BreakpadInit_go2CrashCoffeeCatch
PUBLIC 285b8 0 std::__ndk1::basic_string<char, std::__ndk1::char_traits<char>, std::__ndk1::allocator<char> >::basic_string(std::__ndk1::basic_string<char, std::__ndk1::char_traits<char>, std::__ndk1::allocator<char> > const&)
PUBLIC 286ec 0 google_breakpad::MicrodumpExtraInfo::MicrodumpExtraInfo()
PUBLIC 287ac 0 std::__ndk1::__compressed_pair<std::__ndk1::basic_string<char, std::__ndk1::char_traits<char>, std::__ndk1::allocator<char> >::__rep, std::__ndk1::allocator<char> >::__compressed_pair<std::__ndk1::allocator<char> >(std::__ndk1::__second_tag, std::__ndk1::allocator<char>&&)
PUBLIC 288a8 0 std::__ndk1::basic_string<char, std::__ndk1::char_traits<char>, std::__ndk1::allocator<char> >::__init(char const*, unsigned long)
PUBLIC 28ae0 0 std::__ndk1::__compressed_pair_elem<std::__ndk1::allocator<char>, 1, true>::__compressed_pair_elem<std::__ndk1::allocator<char>, void>(std::__ndk1::allocator<char>&&)
PUBLIC 28b64 0 std::__ndk1::__basic_string_common<true>::__throw_length_error() const
PUBLIC 28d94 0 std::__ndk1::char_traits<char>::copy(char*, char const*, unsigned long)
PUBLIC 28e08 0 std::__ndk1::char_traits<char>::assign(char&, char const&)
PUBLIC 28f98 0 unsigned long std::__ndk1::basic_string<char, std::__ndk1::char_traits<char>, std::__ndk1::allocator<char> >::__align_it<16ul>(unsigned long)
PUBLIC 29088 0 std::__ndk1::__compressed_pair<std::__ndk1::basic_string<char, std::__ndk1::char_traits<char>, std::__ndk1::allocator<char> >::__rep, std::__ndk1::allocator<char> >::__compressed_pair<true, void>()
PUBLIC 2933c 0 std::__ndk1::_DeallocateCaller::__do_deallocate_handle_size(void*, unsigned long)
PUBLIC 29364 0 std::__ndk1::_DeallocateCaller::__do_call(void*)
PUBLIC 29388 0 std::__ndk1::char_traits<char>::length(char const*)
PUBLIC 293ac 0 google_breakpad::ExceptionHandler::ExceptionHandler(google_breakpad::MinidumpDescriptor const&, bool (*)(void*), bool (*)(google_breakpad::MinidumpDescriptor const&, void*, bool, char*), void*, bool, int)
PUBLIC 296a0 0 google_breakpad::scoped_ptr<google_breakpad::CrashGenerationClient>::scoped_ptr(google_breakpad::CrashGenerationClient*)
PUBLIC 29708 0 google_breakpad::scoped_ptr<google_breakpad::CrashGenerationClient>::reset(google_breakpad::CrashGenerationClient*)
PUBLIC 29790 0 google_breakpad::ExceptionHandler::IsOutOfProcess() const
PUBLIC 297dc 0 google_breakpad::MinidumpDescriptor::IsFD() const
PUBLIC 2980c 0 google_breakpad::MinidumpDescriptor::IsMicrodumpOnConsole() const
PUBLIC 29a38 0 google_breakpad::ExceptionHandler::InstallHandlersLocked()
PUBLIC 29d40 0 std::__ndk1::list<google_breakpad::AppMemory, std::__ndk1::allocator<google_breakpad::AppMemory> >::~list()
PUBLIC 29d64 0 std::__ndk1::list<google_breakpad::MappingEntry, std::__ndk1::allocator<google_breakpad::MappingEntry> >::~list()
PUBLIC 29d88 0 google_breakpad::scoped_ptr<google_breakpad::CrashGenerationClient>::~scoped_ptr()
PUBLIC 29dd4 0 google_breakpad::ExceptionHandler::~ExceptionHandler()
PUBLIC 2a1bc 0 _ZNSt6__ndk111__wrap_iterIPKPN15google_breakpad16ExceptionHandlerEEC2IPS3_EERKNS0_IT_EEPNS_9enable_ifIXsr14is_convertibleIS9_S5_EE5valueEvE4typeE
PUBLIC 2a398 0 google_breakpad::ExceptionHandler::RestoreHandlersLocked()
PUBLIC 2a4b0 0 google_breakpad::ExceptionHandler::SignalHandler(int, siginfo*, void*)
PUBLIC 2a878 0 google_breakpad::ExceptionHandler::HandleSignal(int, siginfo*, void*)
PUBLIC 2abc0 0 google_breakpad::ExceptionHandler::ThreadEntry(void*)
PUBLIC 2ad44 0 google_breakpad::ExceptionHandler::WaitForContinueSignal()
PUBLIC 2ae98 0 google_breakpad::ExceptionHandler::DoDump(int, void const*, unsigned long)
PUBLIC 2b1e8 0 google_breakpad::ExceptionHandler::GenerateDump(google_breakpad::ExceptionHandler::CrashContext*)
PUBLIC 2b7e0 0 google_breakpad::ExceptionHandler::SimulateSignalDelivery(int)
PUBLIC 2b8c0 0 google_breakpad::scoped_ptr<google_breakpad::CrashGenerationClient>::operator->() const
PUBLIC 2b944 0 google_breakpad::PageAllocator::PageAllocator()
PUBLIC 2b9a4 0 google_breakpad::PageAllocator::Alloc(unsigned long)
PUBLIC 2bca8 0 google_breakpad::ExceptionHandler::SendContinueSignalToChild()
PUBLIC 2be18 0 google_breakpad::PageAllocator::~PageAllocator()
PUBLIC 2bf94 0 google_breakpad::MinidumpDescriptor::skip_dump_if_principal_mapping_not_referenced()
PUBLIC 2bfb8 0 google_breakpad::MinidumpDescriptor::address_within_principal_mapping() const
PUBLIC 2bfd0 0 google_breakpad::MinidumpDescriptor::sanitize_stacks() const
PUBLIC 2bff4 0 google_breakpad::MinidumpDescriptor::microdump_extra_info()
PUBLIC 2c06c 0 google_breakpad::MinidumpDescriptor::fd() const
PUBLIC 2c084 0 google_breakpad::MinidumpDescriptor::size_limit() const
PUBLIC 2c09c 0 google_breakpad::MinidumpDescriptor::path() const
PUBLIC 2c0b4 0 google_breakpad::ExceptionHandler::WriteMinidump(std::__ndk1::basic_string<char, std::__ndk1::char_traits<char>, std::__ndk1::allocator<char> > const&, bool (*)(google_breakpad::MinidumpDescriptor const&, void*, bool, char*), void*)
PUBLIC 2c1c0 0 google_breakpad::ExceptionHandler::WriteMinidump()
PUBLIC 2c3a0 0 void google_breakpad::ignore_result<int>(int const&)
PUBLIC 2c408 0 google_breakpad::ExceptionHandler::AddMappingInfo(std::__ndk1::basic_string<char, std::__ndk1::char_traits<char>, std::__ndk1::allocator<char> > const&, unsigned char const*, unsigned long, unsigned long, unsigned long)
PUBLIC 2c540 0 std::__ndk1::list<google_breakpad::MappingEntry, std::__ndk1::allocator<google_breakpad::MappingEntry> >::push_back(google_breakpad::MappingEntry const&)
PUBLIC 2c680 0 google_breakpad::ExceptionHandler::RegisterAppMemory(void*, unsigned long)
PUBLIC 2c8c0 0 std::__ndk1::list<google_breakpad::AppMemory, std::__ndk1::allocator<google_breakpad::AppMemory> >::push_back(google_breakpad::AppMemory const&)
PUBLIC 2ca00 0 google_breakpad::ExceptionHandler::UnregisterAppMemory(void*)
PUBLIC 2cadc 0 std::__ndk1::list<google_breakpad::AppMemory, std::__ndk1::allocator<google_breakpad::AppMemory> >::erase(std::__ndk1::__list_const_iterator<google_breakpad::AppMemory, void*>)
PUBLIC 2cc00 0 google_breakpad::ExceptionHandler::WriteMinidumpForChild(int, int, std::__ndk1::basic_string<char, std::__ndk1::char_traits<char>, std::__ndk1::allocator<char> > const&, bool (*)(google_breakpad::MinidumpDescriptor const&, void*, bool, char*), void*)
PUBLIC 2cd58 0 google_breakpad::SetFirstChanceExceptionHandler(bool (*)(int, void*, void*))
PUBLIC 2cd78 0 google_breakpad::scoped_ptr<google_breakpad::CrashGenerationClient>::get() const
PUBLIC 2cf24 0 std::__ndk1::__list_imp<google_breakpad::AppMemory, std::__ndk1::allocator<google_breakpad::AppMemory> >::~__list_imp()
PUBLIC 2cf48 0 std::__ndk1::__list_imp<google_breakpad::AppMemory, std::__ndk1::allocator<google_breakpad::AppMemory> >::clear()
PUBLIC 2d18c 0 void std::__ndk1::allocator_traits<std::__ndk1::allocator<std::__ndk1::__list_node<google_breakpad::AppMemory, void*> > >::destroy<google_breakpad::AppMemory>(std::__ndk1::allocator<std::__ndk1::__list_node<google_breakpad::AppMemory, void*> >&, google_breakpad::AppMemory*)
PUBLIC 2d35c 0 void std::__ndk1::allocator_traits<std::__ndk1::allocator<std::__ndk1::__list_node<google_breakpad::AppMemory, void*> > >::__destroy<google_breakpad::AppMemory>(std::__ndk1::integral_constant<bool, false>, std::__ndk1::allocator<std::__ndk1::__list_node<google_breakpad::AppMemory, void*> >&, google_breakpad::AppMemory*)
PUBLIC 2d3c0 0 std::__ndk1::__list_imp<google_breakpad::MappingEntry, std::__ndk1::allocator<google_breakpad::MappingEntry> >::~__list_imp()
PUBLIC 2d3e4 0 std::__ndk1::__list_imp<google_breakpad::MappingEntry, std::__ndk1::allocator<google_breakpad::MappingEntry> >::clear()
PUBLIC 2d628 0 void std::__ndk1::allocator_traits<std::__ndk1::allocator<std::__ndk1::__list_node<google_breakpad::MappingEntry, void*> > >::destroy<google_breakpad::MappingEntry>(std::__ndk1::allocator<std::__ndk1::__list_node<google_breakpad::MappingEntry, void*> >&, google_breakpad::MappingEntry*)
PUBLIC 2d7d0 0 void std::__ndk1::allocator_traits<std::__ndk1::allocator<std::__ndk1::__list_node<google_breakpad::MappingEntry, void*> > >::__destroy<google_breakpad::MappingEntry>(std::__ndk1::integral_constant<bool, false>, std::__ndk1::allocator<std::__ndk1::__list_node<google_breakpad::MappingEntry, void*> >&, google_breakpad::MappingEntry*)
PUBLIC 2d924 0 google_breakpad::PageAllocator::GetNPages(unsigned long)
PUBLIC 2dc1c 0 google_breakpad::PageAllocator::FreeAll()
PUBLIC 2def8 0 std::__ndk1::__compressed_pair<unsigned long, std::__ndk1::allocator<std::__ndk1::__list_node<google_breakpad::MappingEntry, void*> > >::__compressed_pair<int, true>(int&&)
PUBLIC 2df5c 0 std::__ndk1::__compressed_pair_elem<unsigned long, 0, false>::__compressed_pair_elem<int, void>(int&&)
PUBLIC 2e0ac 0 std::__ndk1::__compressed_pair<unsigned long, std::__ndk1::allocator<std::__ndk1::__list_node<google_breakpad::AppMemory, void*> > >::__compressed_pair<int, true>(int&&)
PUBLIC 2e1cc 0 std::__ndk1::__compressed_pair<google_breakpad::ExceptionHandler**, std::__ndk1::allocator<google_breakpad::ExceptionHandler*> >::__compressed_pair<decltype(nullptr), true>(decltype(nullptr)&&)
PUBLIC 2e230 0 std::__ndk1::__compressed_pair_elem<google_breakpad::ExceptionHandler**, 0, false>::__compressed_pair_elem<decltype(nullptr), void>(decltype(nullptr)&&)
PUBLIC 2e2f0 0 void std::__ndk1::allocator_traits<std::__ndk1::allocator<google_breakpad::ExceptionHandler*> >::construct<google_breakpad::ExceptionHandler*, google_breakpad::ExceptionHandler*>(std::__ndk1::allocator<google_breakpad::ExceptionHandler*>&, google_breakpad::ExceptionHandler**, google_breakpad::ExceptionHandler*&&)
PUBLIC 2e3b8 0 void std::__ndk1::vector<google_breakpad::ExceptionHandler*, std::__ndk1::allocator<google_breakpad::ExceptionHandler*> >::__push_back_slow_path<google_breakpad::ExceptionHandler*>(google_breakpad::ExceptionHandler*&&)
PUBLIC 2e51c 0 void std::__ndk1::allocator_traits<std::__ndk1::allocator<google_breakpad::ExceptionHandler*> >::__construct<google_breakpad::ExceptionHandler*, google_breakpad::ExceptionHandler*>(std::__ndk1::integral_constant<bool, true>, std::__ndk1::allocator<google_breakpad::ExceptionHandler*>&, google_breakpad::ExceptionHandler**, google_breakpad::ExceptionHandler*&&)
PUBLIC 2e590 0 void std::__ndk1::allocator<google_breakpad::ExceptionHandler*>::construct<google_breakpad::ExceptionHandler*, google_breakpad::ExceptionHandler*>(google_breakpad::ExceptionHandler**, google_breakpad::ExceptionHandler*&&)
PUBLIC 2e6f0 0 std::__ndk1::__split_buffer<google_breakpad::ExceptionHandler*, std::__ndk1::allocator<google_breakpad::ExceptionHandler*>&>::__split_buffer(unsigned long, unsigned long, std::__ndk1::allocator<google_breakpad::ExceptionHandler*>&)
PUBLIC 2e7dc 0 std::__ndk1::vector<google_breakpad::ExceptionHandler*, std::__ndk1::allocator<google_breakpad::ExceptionHandler*> >::__swap_out_circular_buffer(std::__ndk1::__split_buffer<google_breakpad::ExceptionHandler*, std::__ndk1::allocator<google_breakpad::ExceptionHandler*>&>&)
PUBLIC 2e8d4 0 std::__ndk1::__split_buffer<google_breakpad::ExceptionHandler*, std::__ndk1::allocator<google_breakpad::ExceptionHandler*>&>::~__split_buffer()
PUBLIC 2e960 0 std::__ndk1::vector<google_breakpad::ExceptionHandler*, std::__ndk1::allocator<google_breakpad::ExceptionHandler*> >::max_size() const
PUBLIC 2e9ec 0 std::__ndk1::__vector_base_common<true>::__throw_length_error() const
PUBLIC 2ed88 0 std::__ndk1::__compressed_pair<google_breakpad::ExceptionHandler**, std::__ndk1::allocator<google_breakpad::ExceptionHandler*>&>::__compressed_pair<decltype(nullptr), std::__ndk1::allocator<google_breakpad::ExceptionHandler*>&>(decltype(nullptr)&&, std::__ndk1::allocator<google_breakpad::ExceptionHandler*>&)
PUBLIC 2eeac 0 std::__ndk1::__compressed_pair_elem<std::__ndk1::allocator<google_breakpad::ExceptionHandler*>&, 1, false>::__compressed_pair_elem<std::__ndk1::allocator<google_breakpad::ExceptionHandler*>&, void>(std::__ndk1::allocator<google_breakpad::ExceptionHandler*>&)
PUBLIC 2f094 0 _ZNSt6__ndk116allocator_traitsINS_9allocatorIPN15google_breakpad16ExceptionHandlerEEEE20__construct_backwardIS4_EENS_9enable_ifIXaaooL_ZNS_17integral_constantIbLb1EE5valueEEntsr15__has_constructIS5_PT_SB_EE5valuesr31is_trivially_move_constructibleISB_EE5valueEvE4typeERS5_SC_SC_RSC_
PUBLIC 2f44c 0 void std::__ndk1::allocator_traits<std::__ndk1::allocator<google_breakpad::ExceptionHandler*> >::destroy<google_breakpad::ExceptionHandler*>(std::__ndk1::allocator<google_breakpad::ExceptionHandler*>&, google_breakpad::ExceptionHandler**)
PUBLIC 2f480 0 void std::__ndk1::allocator_traits<std::__ndk1::allocator<google_breakpad::ExceptionHandler*> >::__destroy<google_breakpad::ExceptionHandler*>(std::__ndk1::integral_constant<bool, true>, std::__ndk1::allocator<google_breakpad::ExceptionHandler*>&, google_breakpad::ExceptionHandler**)
PUBLIC 2fb10 0 std::__ndk1::__vector_base<google_breakpad::ExceptionHandler*, std::__ndk1::allocator<google_breakpad::ExceptionHandler*> >::~__vector_base()
PUBLIC 2fd58 0 void std::__ndk1::allocator_traits<std::__ndk1::allocator<std::__ndk1::__list_node<google_breakpad::MappingEntry, void*> > >::construct<google_breakpad::MappingEntry, google_breakpad::MappingEntry const&>(std::__ndk1::allocator<std::__ndk1::__list_node<google_breakpad::MappingEntry, void*> >&, google_breakpad::MappingEntry*, google_breakpad::MappingEntry const&)
PUBLIC 2ff7c 0 std::__ndk1::unique_ptr<std::__ndk1::__list_node<google_breakpad::MappingEntry, void*>, std::__ndk1::__allocator_destructor<std::__ndk1::allocator<std::__ndk1::__list_node<google_breakpad::MappingEntry, void*> > > >::unique_ptr<true, void>(std::__ndk1::__list_node<google_breakpad::MappingEntry, void*>*, std::__ndk1::__dependent_type<std::__ndk1::__unique_ptr_deleter_sfinae<std::__ndk1::__allocator_destructor<std::__ndk1::allocator<std::__ndk1::__list_node<google_breakpad::MappingEntry, void*> > > >, true>::__good_rval_ref_type)
PUBLIC 300ac 0 std::__ndk1::__compressed_pair<std::__ndk1::__list_node<google_breakpad::MappingEntry, void*>*, std::__ndk1::__allocator_destructor<std::__ndk1::allocator<std::__ndk1::__list_node<google_breakpad::MappingEntry, void*> > > >::__compressed_pair<std::__ndk1::__list_node<google_breakpad::MappingEntry, void*>*&, std::__ndk1::__allocator_destructor<std::__ndk1::allocator<std::__ndk1::__list_node<google_breakpad::MappingEntry, void*> > > >(std::__ndk1::__list_node<google_breakpad::MappingEntry, void*>*&, std::__ndk1::__allocator_destructor<std::__ndk1::allocator<std::__ndk1::__list_node<google_breakpad::MappingEntry, void*> > >&&)
PUBLIC 30144 0 std::__ndk1::__compressed_pair_elem<std::__ndk1::__list_node<google_breakpad::MappingEntry, void*>*, 0, false>::__compressed_pair_elem<std::__ndk1::__list_node<google_breakpad::MappingEntry, void*>*&, void>(std::__ndk1::__list_node<google_breakpad::MappingEntry, void*>*&)
PUBLIC 30198 0 std::__ndk1::__compressed_pair_elem<std::__ndk1::__allocator_destructor<std::__ndk1::allocator<std::__ndk1::__list_node<google_breakpad::MappingEntry, void*> > >, 1, false>::__compressed_pair_elem<std::__ndk1::__allocator_destructor<std::__ndk1::allocator<std::__ndk1::__list_node<google_breakpad::MappingEntry, void*> > >, void>(std::__ndk1::__allocator_destructor<std::__ndk1::allocator<std::__ndk1::__list_node<google_breakpad::MappingEntry, void*> > >&&)
PUBLIC 301ec 0 void std::__ndk1::allocator_traits<std::__ndk1::allocator<std::__ndk1::__list_node<google_breakpad::MappingEntry, void*> > >::__construct<google_breakpad::MappingEntry, google_breakpad::MappingEntry const&>(std::__ndk1::integral_constant<bool, true>, std::__ndk1::allocator<std::__ndk1::__list_node<google_breakpad::MappingEntry, void*> >&, google_breakpad::MappingEntry*, google_breakpad::MappingEntry const&)
PUBLIC 30260 0 void std::__ndk1::allocator<std::__ndk1::__list_node<google_breakpad::MappingEntry, void*> >::construct<google_breakpad::MappingEntry, google_breakpad::MappingEntry const&>(google_breakpad::MappingEntry*, google_breakpad::MappingEntry const&)
PUBLIC 30564 0 google_breakpad::AppMemory::operator==(void const*) const
PUBLIC 306a4 0 void std::__ndk1::allocator_traits<std::__ndk1::allocator<std::__ndk1::__list_node<google_breakpad::AppMemory, void*> > >::construct<google_breakpad::AppMemory, google_breakpad::AppMemory const&>(std::__ndk1::allocator<std::__ndk1::__list_node<google_breakpad::AppMemory, void*> >&, google_breakpad::AppMemory*, google_breakpad::AppMemory const&)
PUBLIC 308c8 0 std::__ndk1::unique_ptr<std::__ndk1::__list_node<google_breakpad::AppMemory, void*>, std::__ndk1::__allocator_destructor<std::__ndk1::allocator<std::__ndk1::__list_node<google_breakpad::AppMemory, void*> > > >::unique_ptr<true, void>(std::__ndk1::__list_node<google_breakpad::AppMemory, void*>*, std::__ndk1::__dependent_type<std::__ndk1::__unique_ptr_deleter_sfinae<std::__ndk1::__allocator_destructor<std::__ndk1::allocator<std::__ndk1::__list_node<google_breakpad::AppMemory, void*> > > >, true>::__good_rval_ref_type)
PUBLIC 309ec 0 std::__ndk1::__compressed_pair<std::__ndk1::__list_node<google_breakpad::AppMemory, void*>*, std::__ndk1::__allocator_destructor<std::__ndk1::allocator<std::__ndk1::__list_node<google_breakpad::AppMemory, void*> > > >::__compressed_pair<std::__ndk1::__list_node<google_breakpad::AppMemory, void*>*&, std::__ndk1::__allocator_destructor<std::__ndk1::allocator<std::__ndk1::__list_node<google_breakpad::AppMemory, void*> > > >(std::__ndk1::__list_node<google_breakpad::AppMemory, void*>*&, std::__ndk1::__allocator_destructor<std::__ndk1::allocator<std::__ndk1::__list_node<google_breakpad::AppMemory, void*> > >&&)
PUBLIC 30a84 0 std::__ndk1::__compressed_pair_elem<std::__ndk1::__list_node<google_breakpad::AppMemory, void*>*, 0, false>::__compressed_pair_elem<std::__ndk1::__list_node<google_breakpad::AppMemory, void*>*&, void>(std::__ndk1::__list_node<google_breakpad::AppMemory, void*>*&)
PUBLIC 30ad8 0 std::__ndk1::__compressed_pair_elem<std::__ndk1::__allocator_destructor<std::__ndk1::allocator<std::__ndk1::__list_node<google_breakpad::AppMemory, void*> > >, 1, false>::__compressed_pair_elem<std::__ndk1::__allocator_destructor<std::__ndk1::allocator<std::__ndk1::__list_node<google_breakpad::AppMemory, void*> > >, void>(std::__ndk1::__allocator_destructor<std::__ndk1::allocator<std::__ndk1::__list_node<google_breakpad::AppMemory, void*> > >&&)
PUBLIC 30b2c 0 void std::__ndk1::allocator_traits<std::__ndk1::allocator<std::__ndk1::__list_node<google_breakpad::AppMemory, void*> > >::__construct<google_breakpad::AppMemory, google_breakpad::AppMemory const&>(std::__ndk1::integral_constant<bool, true>, std::__ndk1::allocator<std::__ndk1::__list_node<google_breakpad::AppMemory, void*> >&, google_breakpad::AppMemory*, google_breakpad::AppMemory const&)
PUBLIC 30ba0 0 void std::__ndk1::allocator<std::__ndk1::__list_node<google_breakpad::AppMemory, void*> >::construct<google_breakpad::AppMemory, google_breakpad::AppMemory const&>(google_breakpad::AppMemory*, google_breakpad::AppMemory const&)
PUBLIC 30d70 0 google_breakpad::MinidumpDescriptor::MinidumpDescriptor(google_breakpad::MinidumpDescriptor const&)
PUBLIC 30ee4 0 google_breakpad::MinidumpDescriptor::operator=(google_breakpad::MinidumpDescriptor const&)
PUBLIC 3104c 0 std::__ndk1::basic_string<char, std::__ndk1::char_traits<char>, std::__ndk1::allocator<char> >::operator=(std::__ndk1::basic_string<char, std::__ndk1::char_traits<char>, std::__ndk1::allocator<char> > const&)
PUBLIC 311a8 0 google_breakpad::MinidumpDescriptor::UpdatePath()
PUBLIC 31544 0 std::__ndk1::basic_string<char, std::__ndk1::char_traits<char>, std::__ndk1::allocator<char> >::assign(char const*, unsigned long)
PUBLIC 31740 0 std::__ndk1::char_traits<char>::move(char*, char const*, unsigned long)
PUBLIC 31804 0 std::__ndk1::basic_string<char, std::__ndk1::char_traits<char>, std::__ndk1::allocator<char> >::__grow_by_and_replace(unsigned long, unsigned long, unsigned long, unsigned long, unsigned long, unsigned long, char const*)
PUBLIC 31b40 0 std::__ndk1::basic_string<char, std::__ndk1::char_traits<char>, std::__ndk1::allocator<char> >::__init(char const*, unsigned long, unsigned long)
PUBLIC 31c88 0 std::__ndk1::basic_string<char, std::__ndk1::char_traits<char>, std::__ndk1::allocator<char> >::append(char const*, unsigned long)
PUBLIC 31ddc 0 std::__ndk1::__compressed_pair<std::__ndk1::basic_string<char, std::__ndk1::char_traits<char>, std::__ndk1::allocator<char> >::__rep, std::__ndk1::allocator<char> >::__compressed_pair<std::__ndk1::allocator<char> const&>(std::__ndk1::__second_tag, std::__ndk1::allocator<char> const&)
PUBLIC 31e44 0 std::__ndk1::__compressed_pair_elem<std::__ndk1::allocator<char>, 1, true>::__compressed_pair_elem<std::__ndk1::allocator<char> const&, void>(std::__ndk1::allocator<char> const&)
PUBLIC 31e80 0 std::__ndk1::basic_string<char, std::__ndk1::char_traits<char>, std::__ndk1::allocator<char> >::append(char const*)
PUBLIC 320e4 0 logger::initializeCrashLogWriter()
PUBLIC 32160 0 logger::writeToCrashLog(char const*)
PUBLIC 321e8 0 logger::write(char const*, unsigned long)
PUBLIC 32224 0 google_breakpad::WriteMicrodump(int, void const*, unsigned long, std::__ndk1::list<google_breakpad::MappingEntry, std::__ndk1::allocator<google_breakpad::MappingEntry> > const&, bool, unsigned long, bool, google_breakpad::MicrodumpExtraInfo const&)
PUBLIC 32400 0 google_breakpad::LinuxDumper::set_crash_thread(int)
PUBLIC 327bc 0 google_breakpad::LinuxPtraceDumper::~LinuxPtraceDumper()
PUBLIC 3281c 0 google_breakpad::LinuxDumper::allocator()
PUBLIC 33484 0 google_breakpad::LinuxDumper::crash_thread() const
PUBLIC 336c8 0 google_breakpad::LinuxDumper::crash_signal() const
PUBLIC 337a4 0 google_breakpad::LinuxDumper::crash_address() const
PUBLIC 3383c 0 google_breakpad::LinuxDumper::mappings()
PUBLIC 33e6c 0 google_breakpad::auto_wasteful_vector<unsigned char, 20u>::auto_wasteful_vector(google_breakpad::PageAllocator*)
PUBLIC 33f28 0 _ZNSt6__ndk16vectorIhN15google_breakpad16PageStdAllocatorIhEEE6insertIPKhEENS_9enable_ifIXaasr21__is_forward_iteratorIT_EE5valuesr16is_constructibleIhNS_15iterator_traitsIS9_E9referenceEEE5valueENS_11__wrap_iterIPhEEE4typeENSD_IS7_EES9_S9_
PUBLIC 34240 0 _ZNSt6__ndk111__wrap_iterIPKhEC2IPhEERKNS0_IT_EEPNS_9enable_ifIXsr14is_convertibleIS6_S2_EE5valueEvE4typeE
PUBLIC 3444c 0 google_breakpad::auto_wasteful_vector<unsigned char, 20u>::~auto_wasteful_vector()
PUBLIC 34470 0 google_breakpad::PageStdAllocator<unsigned char>::PageStdAllocator(google_breakpad::PageAllocator&, unsigned char*, unsigned long)
PUBLIC 344c4 0 google_breakpad::wasteful_vector<unsigned char>::wasteful_vector(google_breakpad::PageStdAllocator<unsigned char>)
PUBLIC 344e8 0 std::__ndk1::vector<unsigned char, google_breakpad::PageStdAllocator<unsigned char> >::reserve(unsigned long)
PUBLIC 345e0 0 google_breakpad::wasteful_vector<unsigned char>::~wasteful_vector()
PUBLIC 346cc 0 std::__ndk1::__compressed_pair<unsigned char*, google_breakpad::PageStdAllocator<unsigned char> >::__compressed_pair<decltype(nullptr), google_breakpad::PageStdAllocator<unsigned char> const&>(decltype(nullptr)&&, google_breakpad::PageStdAllocator<unsigned char> const&)
PUBLIC 34750 0 std::__ndk1::__compressed_pair_elem<unsigned char*, 0, false>::__compressed_pair_elem<decltype(nullptr), void>(decltype(nullptr)&&)
PUBLIC 347ac 0 std::__ndk1::__compressed_pair_elem<google_breakpad::PageStdAllocator<unsigned char>, 1, false>::__compressed_pair_elem<google_breakpad::PageStdAllocator<unsigned char> const&, void>(google_breakpad::PageStdAllocator<unsigned char> const&)
PUBLIC 34850 0 std::__ndk1::__split_buffer<unsigned char, google_breakpad::PageStdAllocator<unsigned char>&>::__split_buffer(unsigned long, unsigned long, google_breakpad::PageStdAllocator<unsigned char>&)
PUBLIC 3493c 0 std::__ndk1::vector<unsigned char, google_breakpad::PageStdAllocator<unsigned char> >::__swap_out_circular_buffer(std::__ndk1::__split_buffer<unsigned char, google_breakpad::PageStdAllocator<unsigned char>&>&)
PUBLIC 34a34 0 std::__ndk1::__split_buffer<unsigned char, google_breakpad::PageStdAllocator<unsigned char>&>::~__split_buffer()
PUBLIC 34b9c 0 std::__ndk1::__compressed_pair<unsigned char*, google_breakpad::PageStdAllocator<unsigned char>&>::__compressed_pair<decltype(nullptr), google_breakpad::PageStdAllocator<unsigned char>&>(decltype(nullptr)&&, google_breakpad::PageStdAllocator<unsigned char>&)
PUBLIC 34cc0 0 std::__ndk1::__compressed_pair_elem<google_breakpad::PageStdAllocator<unsigned char>&, 1, false>::__compressed_pair_elem<google_breakpad::PageStdAllocator<unsigned char>&, void>(google_breakpad::PageStdAllocator<unsigned char>&)
PUBLIC 34cfc 0 google_breakpad::PageStdAllocator<unsigned char>::allocate(unsigned long, void const*)
PUBLIC 34ea8 0 void std::__ndk1::allocator_traits<google_breakpad::PageStdAllocator<unsigned char> >::__construct_backward<unsigned char*>(google_breakpad::PageStdAllocator<unsigned char>&, unsigned char*, unsigned char*, unsigned char*&)
PUBLIC 35124 0 void std::__ndk1::allocator_traits<google_breakpad::PageStdAllocator<unsigned char> >::construct<unsigned char, unsigned char>(google_breakpad::PageStdAllocator<unsigned char>&, unsigned char*, unsigned char&&)
PUBLIC 351ac 0 void std::__ndk1::allocator_traits<google_breakpad::PageStdAllocator<unsigned char> >::__construct<unsigned char, unsigned char>(std::__ndk1::integral_constant<bool, true>, google_breakpad::PageStdAllocator<unsigned char>&, unsigned char*, unsigned char&&)
PUBLIC 35220 0 void std::__ndk1::allocator<unsigned char>::construct<unsigned char, unsigned char>(unsigned char*, unsigned char&&)
PUBLIC 3541c 0 void std::__ndk1::allocator_traits<google_breakpad::PageStdAllocator<unsigned char> >::destroy<unsigned char>(google_breakpad::PageStdAllocator<unsigned char>&, unsigned char*)
PUBLIC 35450 0 void std::__ndk1::allocator_traits<google_breakpad::PageStdAllocator<unsigned char> >::__destroy<unsigned char>(std::__ndk1::integral_constant<bool, true>, google_breakpad::PageStdAllocator<unsigned char>&, unsigned char*)
PUBLIC 35498 0 google_breakpad::PageStdAllocator<unsigned char>::deallocate(unsigned char*, unsigned long)
PUBLIC 35550 0 std::__ndk1::__vector_base<unsigned char, google_breakpad::PageStdAllocator<unsigned char> >::~__vector_base()
PUBLIC 35788 0 _ZNSt6__ndk16vectorIhN15google_breakpad16PageStdAllocatorIhEEE18__construct_at_endIPKhEENS_9enable_ifIXsr21__is_forward_iteratorIT_EE5valueEvE4typeES9_S9_m
PUBLIC 35844 0 std::__ndk1::vector<unsigned char, google_breakpad::PageStdAllocator<unsigned char> >::__move_range(unsigned char*, unsigned char*, unsigned char*)
PUBLIC 35a90 0 _ZNSt6__ndk114__split_bufferIhRN15google_breakpad16PageStdAllocatorIhEEE18__construct_at_endIPKhEENS_9enable_ifIXsr21__is_forward_iteratorIT_EE5valueEvE4typeESA_SA_
PUBLIC 35b3c 0 std::__ndk1::vector<unsigned char, google_breakpad::PageStdAllocator<unsigned char> >::__swap_out_circular_buffer(std::__ndk1::__split_buffer<unsigned char, google_breakpad::PageStdAllocator<unsigned char>&>&, unsigned char*)
PUBLIC 35d58 0 void std::__ndk1::allocator_traits<google_breakpad::PageStdAllocator<unsigned char> >::__construct_range_forward<unsigned char const*, unsigned char*>(google_breakpad::PageStdAllocator<unsigned char>&, unsigned char const*, unsigned char const*, unsigned char*&)
PUBLIC 35dec 0 void std::__ndk1::allocator_traits<google_breakpad::PageStdAllocator<unsigned char> >::construct<unsigned char, unsigned char const&>(google_breakpad::PageStdAllocator<unsigned char>&, unsigned char*, unsigned char const&)
PUBLIC 35e50 0 void std::__ndk1::allocator_traits<google_breakpad::PageStdAllocator<unsigned char> >::__construct<unsigned char, unsigned char const&>(std::__ndk1::integral_constant<bool, true>, google_breakpad::PageStdAllocator<unsigned char>&, unsigned char*, unsigned char const&)
PUBLIC 35ec4 0 void std::__ndk1::allocator<unsigned char>::construct<unsigned char, unsigned char const&>(unsigned char*, unsigned char const&)
PUBLIC 36080 0 std::__ndk1::vector<unsigned char, google_breakpad::PageStdAllocator<unsigned char> >::max_size() const
PUBLIC 361e8 0 void std::__ndk1::allocator_traits<google_breakpad::PageStdAllocator<unsigned char> >::__construct_forward<unsigned char*>(google_breakpad::PageStdAllocator<unsigned char>&, unsigned char*, unsigned char*, unsigned char*&)
PUBLIC 36418 0 google_breakpad::LinuxDumper::LinuxDumper(int, char const*)
PUBLIC 3662c 0 google_breakpad::wasteful_vector<int>::wasteful_vector(google_breakpad::PageAllocator*, unsigned int)
PUBLIC 366e0 0 google_breakpad::wasteful_vector<google_breakpad::MappingInfo*>::wasteful_vector(google_breakpad::PageAllocator*, unsigned int)
PUBLIC 36794 0 google_breakpad::wasteful_vector<unsigned long>::wasteful_vector(google_breakpad::PageAllocator*, unsigned int)
PUBLIC 36848 0 std::__ndk1::vector<unsigned long, google_breakpad::PageStdAllocator<unsigned long> >::resize(unsigned long)
PUBLIC 368e4 0 google_breakpad::wasteful_vector<unsigned long>::~wasteful_vector()
PUBLIC 36908 0 google_breakpad::wasteful_vector<google_breakpad::MappingInfo*>::~wasteful_vector()
PUBLIC 3692c 0 google_breakpad::wasteful_vector<int>::~wasteful_vector()
PUBLIC 36950 0 google_breakpad::LinuxDumper::~LinuxDumper()
PUBLIC 369e0 0 google_breakpad::LinuxDumper::~LinuxDumper()
PUBLIC 369ec 0 google_breakpad::LinuxDumper::Init()
PUBLIC 36a80 0 google_breakpad::LinuxDumper::ReadAuxv()
PUBLIC 36c0c 0 google_breakpad::LinuxDumper::LateInit()
PUBLIC 36c48 0 google_breakpad::LinuxDumper::LatePostprocessMappings()
PUBLIC 36d9c 0 google_breakpad::LinuxDumper::ElfFileIdentifierForMapping(google_breakpad::MappingInfo const&, bool, unsigned int, google_breakpad::wasteful_vector<unsigned char>&)
PUBLIC 371d4 0 google_breakpad::LinuxDumper::GetMappingAbsolutePath(google_breakpad::MappingInfo const&, char*) const
PUBLIC 37288 0 google_breakpad::LinuxDumper::HandleDeletedFileInMapping(char*) const
PUBLIC 3756c 0 google_breakpad::MemoryMappedFile::data() const
PUBLIC 37590 0 google_breakpad::MemoryMappedFile::size() const
PUBLIC 375e4 0 google_breakpad::LinuxDumper::SetCrashInfoFromSigInfo(siginfo const&)
PUBLIC 37640 0 google_breakpad::LinuxDumper::set_crash_address(unsigned long)
PUBLIC 37660 0 google_breakpad::LinuxDumper::set_crash_signal(int)
PUBLIC 37680 0 google_breakpad::LinuxDumper::set_crash_signal_code(int)
PUBLIC 376a0 0 google_breakpad::LinuxDumper::GetCrashSignalString() const
PUBLIC 37d0c 0 google_breakpad::LinuxDumper::GetMappingEffectiveNameAndPath(google_breakpad::MappingInfo const&, char*, unsigned long, char*, unsigned long)
PUBLIC 381c8 0 google_breakpad::LinuxDumper::EnumerateMappings()
PUBLIC 387c4 0 operator new(unsigned long, google_breakpad::PageAllocator&)
PUBLIC 387f0 0 google_breakpad::LineReader::LineReader(int)
PUBLIC 38820 0 google_breakpad::LineReader::GetNextLine(char const**, unsigned int*)
PUBLIC 38b6c 0 google_breakpad::LineReader::PopLine(unsigned int)
PUBLIC 38d38 0 google_breakpad::LinuxDumper::GetLoadedElfHeader(unsigned long, elf64_hdr*)
PUBLIC 38dc8 0 google_breakpad::LinuxDumper::ParseLoadedElfProgramHeaders(elf64_hdr*, unsigned long, unsigned long*, unsigned long*, unsigned long*)
PUBLIC 38f54 0 google_breakpad::LinuxDumper::HasAndroidPackedRelocations(unsigned long, unsigned long, unsigned long)
PUBLIC 39098 0 google_breakpad::LinuxDumper::GetEffectiveLoadBias(elf64_hdr*, unsigned long)
PUBLIC 39180 0 google_breakpad::LinuxDumper::GetStackInfo(void const**, unsigned long*, unsigned long)
PUBLIC 39298 0 google_breakpad::LinuxDumper::FindMapping(void const*) const
PUBLIC 393b4 0 google_breakpad::LinuxDumper::SanitizeStackCopy(unsigned char*, unsigned long, unsigned long, unsigned long)
PUBLIC 39790 0 google_breakpad::LinuxDumper::FindMappingNoBias(unsigned long) const
PUBLIC 3992c 0 google_breakpad::LinuxDumper::StackHasPointerToMapping(unsigned char const*, unsigned long, unsigned long, google_breakpad::MappingInfo const&)
PUBLIC 39a5c 0 bool google_breakpad::SafeReadLink<255ul>(char const*, char (&) [255ul])
PUBLIC 39bf4 0 std::__ndk1::__vector_base<unsigned long, google_breakpad::PageStdAllocator<unsigned long> >::~__vector_base()
PUBLIC 39f00 0 void std::__ndk1::allocator_traits<google_breakpad::PageStdAllocator<unsigned long> >::destroy<unsigned long>(google_breakpad::PageStdAllocator<unsigned long>&, unsigned long*)
PUBLIC 39f34 0 void std::__ndk1::allocator_traits<google_breakpad::PageStdAllocator<unsigned long> >::__destroy<unsigned long>(std::__ndk1::integral_constant<bool, true>, google_breakpad::PageStdAllocator<unsigned long>&, unsigned long*)
PUBLIC 39f7c 0 google_breakpad::PageStdAllocator<unsigned long>::deallocate(unsigned long*, unsigned long)
PUBLIC 3a0f8 0 std::__ndk1::__vector_base<google_breakpad::MappingInfo*, google_breakpad::PageStdAllocator<google_breakpad::MappingInfo*> >::~__vector_base()
PUBLIC 3a3dc 0 void std::__ndk1::allocator_traits<google_breakpad::PageStdAllocator<google_breakpad::MappingInfo*> >::destroy<google_breakpad::MappingInfo*>(google_breakpad::PageStdAllocator<google_breakpad::MappingInfo*>&, google_breakpad::MappingInfo**)
PUBLIC 3a410 0 void std::__ndk1::allocator_traits<google_breakpad::PageStdAllocator<google_breakpad::MappingInfo*> >::__destroy<google_breakpad::MappingInfo*>(std::__ndk1::integral_constant<bool, true>, google_breakpad::PageStdAllocator<google_breakpad::MappingInfo*>&, google_breakpad::MappingInfo**)
PUBLIC 3a458 0 google_breakpad::PageStdAllocator<google_breakpad::MappingInfo*>::deallocate(google_breakpad::MappingInfo**, unsigned long)
PUBLIC 3a5d4 0 std::__ndk1::__vector_base<int, google_breakpad::PageStdAllocator<int> >::~__vector_base()
PUBLIC 3a8e0 0 void std::__ndk1::allocator_traits<google_breakpad::PageStdAllocator<int> >::destroy<int>(google_breakpad::PageStdAllocator<int>&, int*)
PUBLIC 3a914 0 void std::__ndk1::allocator_traits<google_breakpad::PageStdAllocator<int> >::__destroy<int>(std::__ndk1::integral_constant<bool, true>, google_breakpad::PageStdAllocator<int>&, int*)
PUBLIC 3a95c 0 google_breakpad::PageStdAllocator<int>::deallocate(int*, unsigned long)
PUBLIC 3ab24 0 google_breakpad::MemoryRange::data() const
PUBLIC 3ab3c 0 google_breakpad::MemoryRange::length() const
PUBLIC 3aedc 0 google_breakpad::PageStdAllocator<int>::PageStdAllocator(google_breakpad::PageAllocator&)
PUBLIC 3af60 0 std::__ndk1::vector<int, google_breakpad::PageStdAllocator<int> >::reserve(unsigned long)
PUBLIC 3b0ec 0 std::__ndk1::__compressed_pair<int*, google_breakpad::PageStdAllocator<int> >::__compressed_pair<decltype(nullptr), google_breakpad::PageStdAllocator<int> const&>(decltype(nullptr)&&, google_breakpad::PageStdAllocator<int> const&)
PUBLIC 3b170 0 std::__ndk1::__compressed_pair_elem<int*, 0, false>::__compressed_pair_elem<decltype(nullptr), void>(decltype(nullptr)&&)
PUBLIC 3b1cc 0 std::__ndk1::__compressed_pair_elem<google_breakpad::PageStdAllocator<int>, 1, false>::__compressed_pair_elem<google_breakpad::PageStdAllocator<int> const&, void>(google_breakpad::PageStdAllocator<int> const&)
PUBLIC 3b220 0 std::__ndk1::__split_buffer<int, google_breakpad::PageStdAllocator<int>&>::__split_buffer(unsigned long, unsigned long, google_breakpad::PageStdAllocator<int>&)
PUBLIC 3b30c 0 std::__ndk1::vector<int, google_breakpad::PageStdAllocator<int> >::__swap_out_circular_buffer(std::__ndk1::__split_buffer<int, google_breakpad::PageStdAllocator<int>&>&)
PUBLIC 3b404 0 std::__ndk1::__split_buffer<int, google_breakpad::PageStdAllocator<int>&>::~__split_buffer()
PUBLIC 3b490 0 std::__ndk1::__compressed_pair<int*, google_breakpad::PageStdAllocator<int>&>::__compressed_pair<decltype(nullptr), google_breakpad::PageStdAllocator<int>&>(decltype(nullptr)&&, google_breakpad::PageStdAllocator<int>&)
PUBLIC 3b5b4 0 std::__ndk1::__compressed_pair_elem<google_breakpad::PageStdAllocator<int>&, 1, false>::__compressed_pair_elem<google_breakpad::PageStdAllocator<int>&, void>(google_breakpad::PageStdAllocator<int>&)
PUBLIC 3b5f0 0 google_breakpad::PageStdAllocator<int>::allocate(unsigned long, void const*)
PUBLIC 3b6e8 0 void std::__ndk1::allocator_traits<google_breakpad::PageStdAllocator<int> >::__construct_backward<int*>(google_breakpad::PageStdAllocator<int>&, int*, int*, int*&)
PUBLIC 3b924 0 void std::__ndk1::allocator_traits<google_breakpad::PageStdAllocator<int> >::construct<int, int>(google_breakpad::PageStdAllocator<int>&, int*, int&&)
PUBLIC 3b9ac 0 void std::__ndk1::allocator_traits<google_breakpad::PageStdAllocator<int> >::__construct<int, int>(std::__ndk1::integral_constant<bool, true>, google_breakpad::PageStdAllocator<int>&, int*, int&&)
PUBLIC 3ba0c 0 void std::__ndk1::allocator<int>::construct<int, int>(int*, int&&)
PUBLIC 3bc2c 0 google_breakpad::PageStdAllocator<google_breakpad::MappingInfo*>::PageStdAllocator(google_breakpad::PageAllocator&)
PUBLIC 3bcb0 0 std::__ndk1::vector<google_breakpad::MappingInfo*, google_breakpad::PageStdAllocator<google_breakpad::MappingInfo*> >::reserve(unsigned long)
PUBLIC 3be3c 0 std::__ndk1::__compressed_pair<google_breakpad::MappingInfo**, google_breakpad::PageStdAllocator<google_breakpad::MappingInfo*> >::__compressed_pair<decltype(nullptr), google_breakpad::PageStdAllocator<google_breakpad::MappingInfo*> const&>(decltype(nullptr)&&, google_breakpad::PageStdAllocator<google_breakpad::MappingInfo*> const&)
PUBLIC 3bec0 0 std::__ndk1::__compressed_pair_elem<google_breakpad::MappingInfo**, 0, false>::__compressed_pair_elem<decltype(nullptr), void>(decltype(nullptr)&&)
PUBLIC 3bf1c 0 std::__ndk1::__compressed_pair_elem<google_breakpad::PageStdAllocator<google_breakpad::MappingInfo*>, 1, false>::__compressed_pair_elem<google_breakpad::PageStdAllocator<google_breakpad::MappingInfo*> const&, void>(google_breakpad::PageStdAllocator<google_breakpad::MappingInfo*> const&)
PUBLIC 3bf70 0 std::__ndk1::__split_buffer<google_breakpad::MappingInfo*, google_breakpad::PageStdAllocator<google_breakpad::MappingInfo*>&>::__split_buffer(unsigned long, unsigned long, google_breakpad::PageStdAllocator<google_breakpad::MappingInfo*>&)
PUBLIC 3c05c 0 std::__ndk1::vector<google_breakpad::MappingInfo*, google_breakpad::PageStdAllocator<google_breakpad::MappingInfo*> >::__swap_out_circular_buffer(std::__ndk1::__split_buffer<google_breakpad::MappingInfo*, google_breakpad::PageStdAllocator<google_breakpad::MappingInfo*>&>&)
PUBLIC 3c154 0 std::__ndk1::__split_buffer<google_breakpad::MappingInfo*, google_breakpad::PageStdAllocator<google_breakpad::MappingInfo*>&>::~__split_buffer()
PUBLIC 3c1e0 0 std::__ndk1::__compressed_pair<google_breakpad::MappingInfo**, google_breakpad::PageStdAllocator<google_breakpad::MappingInfo*>&>::__compressed_pair<decltype(nullptr), google_breakpad::PageStdAllocator<google_breakpad::MappingInfo*>&>(decltype(nullptr)&&, google_breakpad::PageStdAllocator<google_breakpad::MappingInfo*>&)
PUBLIC 3c304 0 std::__ndk1::__compressed_pair_elem<google_breakpad::PageStdAllocator<google_breakpad::MappingInfo*>&, 1, false>::__compressed_pair_elem<google_breakpad::PageStdAllocator<google_breakpad::MappingInfo*>&, void>(google_breakpad::PageStdAllocator<google_breakpad::MappingInfo*>&)
PUBLIC 3c340 0 google_breakpad::PageStdAllocator<google_breakpad::MappingInfo*>::allocate(unsigned long, void const*)
PUBLIC 3c438 0 void std::__ndk1::allocator_traits<google_breakpad::PageStdAllocator<google_breakpad::MappingInfo*> >::__construct_backward<google_breakpad::MappingInfo**>(google_breakpad::PageStdAllocator<google_breakpad::MappingInfo*>&, google_breakpad::MappingInfo**, google_breakpad::MappingInfo**, google_breakpad::MappingInfo**&)
PUBLIC 3c674 0 void std::__ndk1::allocator_traits<google_breakpad::PageStdAllocator<google_breakpad::MappingInfo*> >::construct<google_breakpad::MappingInfo*, google_breakpad::MappingInfo*>(google_breakpad::PageStdAllocator<google_breakpad::MappingInfo*>&, google_breakpad::MappingInfo**, google_breakpad::MappingInfo*&&)
PUBLIC 3c6fc 0 void std::__ndk1::allocator_traits<google_breakpad::PageStdAllocator<google_breakpad::MappingInfo*> >::__construct<google_breakpad::MappingInfo*, google_breakpad::MappingInfo*>(std::__ndk1::integral_constant<bool, true>, google_breakpad::PageStdAllocator<google_breakpad::MappingInfo*>&, google_breakpad::MappingInfo**, google_breakpad::MappingInfo*&&)
PUBLIC 3c770 0 void std::__ndk1::allocator<google_breakpad::MappingInfo*>::construct<google_breakpad::MappingInfo*, google_breakpad::MappingInfo*>(google_breakpad::MappingInfo**, google_breakpad::MappingInfo*&&)
PUBLIC 3c990 0 google_breakpad::PageStdAllocator<unsigned long>::PageStdAllocator(google_breakpad::PageAllocator&)
PUBLIC 3ca14 0 std::__ndk1::vector<unsigned long, google_breakpad::PageStdAllocator<unsigned long> >::reserve(unsigned long)
PUBLIC 3cba0 0 std::__ndk1::__compressed_pair<unsigned long*, google_breakpad::PageStdAllocator<unsigned long> >::__compressed_pair<decltype(nullptr), google_breakpad::PageStdAllocator<unsigned long> const&>(decltype(nullptr)&&, google_breakpad::PageStdAllocator<unsigned long> const&)
PUBLIC 3cc24 0 std::__ndk1::__compressed_pair_elem<unsigned long*, 0, false>::__compressed_pair_elem<decltype(nullptr), void>(decltype(nullptr)&&)
PUBLIC 3cc80 0 std::__ndk1::__compressed_pair_elem<google_breakpad::PageStdAllocator<unsigned long>, 1, false>::__compressed_pair_elem<google_breakpad::PageStdAllocator<unsigned long> const&, void>(google_breakpad::PageStdAllocator<unsigned long> const&)
PUBLIC 3ccd4 0 std::__ndk1::__split_buffer<unsigned long, google_breakpad::PageStdAllocator<unsigned long>&>::__split_buffer(unsigned long, unsigned long, google_breakpad::PageStdAllocator<unsigned long>&)
PUBLIC 3cdc0 0 std::__ndk1::vector<unsigned long, google_breakpad::PageStdAllocator<unsigned long> >::__swap_out_circular_buffer(std::__ndk1::__split_buffer<unsigned long, google_breakpad::PageStdAllocator<unsigned long>&>&)
PUBLIC 3ceb8 0 std::__ndk1::__split_buffer<unsigned long, google_breakpad::PageStdAllocator<unsigned long>&>::~__split_buffer()
PUBLIC 3cf44 0 std::__ndk1::__compressed_pair<unsigned long*, google_breakpad::PageStdAllocator<unsigned long>&>::__compressed_pair<decltype(nullptr), google_breakpad::PageStdAllocator<unsigned long>&>(decltype(nullptr)&&, google_breakpad::PageStdAllocator<unsigned long>&)
PUBLIC 3d068 0 std::__ndk1::__compressed_pair_elem<google_breakpad::PageStdAllocator<unsigned long>&, 1, false>::__compressed_pair_elem<google_breakpad::PageStdAllocator<unsigned long>&, void>(google_breakpad::PageStdAllocator<unsigned long>&)
PUBLIC 3d0a4 0 google_breakpad::PageStdAllocator<unsigned long>::allocate(unsigned long, void const*)
PUBLIC 3d19c 0 void std::__ndk1::allocator_traits<google_breakpad::PageStdAllocator<unsigned long> >::__construct_backward<unsigned long*>(google_breakpad::PageStdAllocator<unsigned long>&, unsigned long*, unsigned long*, unsigned long*&)
PUBLIC 3d3d8 0 void std::__ndk1::allocator_traits<google_breakpad::PageStdAllocator<unsigned long> >::construct<unsigned long, unsigned long>(google_breakpad::PageStdAllocator<unsigned long>&, unsigned long*, unsigned long&&)
PUBLIC 3d460 0 void std::__ndk1::allocator_traits<google_breakpad::PageStdAllocator<unsigned long> >::__construct<unsigned long, unsigned long>(std::__ndk1::integral_constant<bool, true>, google_breakpad::PageStdAllocator<unsigned long>&, unsigned long*, unsigned long&&)
PUBLIC 3d4d4 0 void std::__ndk1::allocator<unsigned long>::construct<unsigned long, unsigned long>(unsigned long*, unsigned long&&)
PUBLIC 3d6f4 0 std::__ndk1::vector<unsigned long, google_breakpad::PageStdAllocator<unsigned long> >::__append(unsigned long)
PUBLIC 3d890 0 std::__ndk1::vector<unsigned long, google_breakpad::PageStdAllocator<unsigned long> >::__construct_at_end(unsigned long)
PUBLIC 3da58 0 std::__ndk1::__split_buffer<unsigned long, google_breakpad::PageStdAllocator<unsigned long>&>::__construct_at_end(unsigned long)
PUBLIC 3db14 0 void std::__ndk1::allocator_traits<google_breakpad::PageStdAllocator<unsigned long> >::construct<unsigned long>(google_breakpad::PageStdAllocator<unsigned long>&, unsigned long*)
PUBLIC 3db58 0 void std::__ndk1::allocator_traits<google_breakpad::PageStdAllocator<unsigned long> >::__construct<unsigned long>(std::__ndk1::integral_constant<bool, true>, google_breakpad::PageStdAllocator<unsigned long>&, unsigned long*)
PUBLIC 3db8c 0 void std::__ndk1::allocator<unsigned long>::construct<unsigned long>(unsigned long*)
PUBLIC 3dba8 0 std::__ndk1::vector<unsigned long, google_breakpad::PageStdAllocator<unsigned long> >::max_size() const
PUBLIC 3de04 0 void std::__ndk1::allocator_traits<google_breakpad::PageStdAllocator<google_breakpad::MappingInfo*> >::construct<google_breakpad::MappingInfo*, google_breakpad::MappingInfo* const&>(google_breakpad::PageStdAllocator<google_breakpad::MappingInfo*>&, google_breakpad::MappingInfo**, google_breakpad::MappingInfo* const&)
PUBLIC 3de78 0 void std::__ndk1::vector<google_breakpad::MappingInfo*, google_breakpad::PageStdAllocator<google_breakpad::MappingInfo*> >::__push_back_slow_path<google_breakpad::MappingInfo* const&>(google_breakpad::MappingInfo* const&)
PUBLIC 3dfa4 0 void std::__ndk1::allocator_traits<google_breakpad::PageStdAllocator<google_breakpad::MappingInfo*> >::__construct<google_breakpad::MappingInfo*, google_breakpad::MappingInfo* const&>(std::__ndk1::integral_constant<bool, true>, google_breakpad::PageStdAllocator<google_breakpad::MappingInfo*>&, google_breakpad::MappingInfo**, google_breakpad::MappingInfo* const&)
PUBLIC 3e018 0 void std::__ndk1::allocator<google_breakpad::MappingInfo*>::construct<google_breakpad::MappingInfo*, google_breakpad::MappingInfo* const&>(google_breakpad::MappingInfo**, google_breakpad::MappingInfo* const&)
PUBLIC 3e140 0 std::__ndk1::vector<google_breakpad::MappingInfo*, google_breakpad::PageStdAllocator<google_breakpad::MappingInfo*> >::max_size() const
PUBLIC 3e2a8 0 google_breakpad::LinuxPtraceDumper::LinuxPtraceDumper(int)
PUBLIC 3e318 0 google_breakpad::LinuxPtraceDumper::BuildProcPath(char*, int, char const*) const
PUBLIC 3e514 0 google_breakpad::LinuxPtraceDumper::CopyFromProcess(void*, int, void const*, unsigned long)
PUBLIC 3e718 0 google_breakpad::LinuxPtraceDumper::ReadRegisterSet(google_breakpad::ThreadInfo*, int)
PUBLIC 3e81c 0 google_breakpad::LinuxPtraceDumper::ReadRegisters(google_breakpad::ThreadInfo*, int)
PUBLIC 3e844 0 google_breakpad::LinuxPtraceDumper::GetThreadInfoByIndex(unsigned long, google_breakpad::ThreadInfo*)
PUBLIC 3ec1c 0 google_breakpad::LinuxPtraceDumper::IsPostMortem() const
PUBLIC 3ec3c 0 google_breakpad::LinuxPtraceDumper::ThreadsSuspend()
PUBLIC 3ef28 0 std::__ndk1::vector<int, google_breakpad::PageStdAllocator<int> >::resize(unsigned long)
PUBLIC 3efc4 0 google_breakpad::LinuxPtraceDumper::ThreadsResume()
PUBLIC 3f13c 0 google_breakpad::LinuxPtraceDumper::EnumerateThreads()
PUBLIC 3f304 0 google_breakpad::DirectoryReader::DirectoryReader(int)
PUBLIC 3f32c 0 google_breakpad::DirectoryReader::GetNextEntry(char const**)
PUBLIC 3f5a4 0 google_breakpad::DirectoryReader::PopEntry()
PUBLIC 3f628 0 google_breakpad::LinuxPtraceDumper::~LinuxPtraceDumper()
PUBLIC 3fa2c 0 std::__ndk1::vector<int, google_breakpad::PageStdAllocator<int> >::__append(unsigned long)
PUBLIC 3fbc8 0 std::__ndk1::vector<int, google_breakpad::PageStdAllocator<int> >::__construct_at_end(unsigned long)
PUBLIC 3fd90 0 std::__ndk1::__split_buffer<int, google_breakpad::PageStdAllocator<int>&>::__construct_at_end(unsigned long)
PUBLIC 3fe4c 0 void std::__ndk1::allocator_traits<google_breakpad::PageStdAllocator<int> >::construct<int>(google_breakpad::PageStdAllocator<int>&, int*)
PUBLIC 3fe90 0 void std::__ndk1::allocator_traits<google_breakpad::PageStdAllocator<int> >::__construct<int>(std::__ndk1::integral_constant<bool, true>, google_breakpad::PageStdAllocator<int>&, int*)
PUBLIC 3fec4 0 void std::__ndk1::allocator<int>::construct<int>(int*)
PUBLIC 3fee0 0 std::__ndk1::vector<int, google_breakpad::PageStdAllocator<int> >::max_size() const
PUBLIC 40124 0 void std::__ndk1::allocator_traits<google_breakpad::PageStdAllocator<int> >::construct<int, int const&>(google_breakpad::PageStdAllocator<int>&, int*, int const&)
PUBLIC 40188 0 void std::__ndk1::vector<int, google_breakpad::PageStdAllocator<int> >::__push_back_slow_path<int const&>(int const&)
PUBLIC 402b4 0 void std::__ndk1::allocator_traits<google_breakpad::PageStdAllocator<int> >::__construct<int, int const&>(std::__ndk1::integral_constant<bool, true>, google_breakpad::PageStdAllocator<int>&, int*, int const&)
PUBLIC 40328 0 void std::__ndk1::allocator<int>::construct<int, int const&>(int*, int const&)
PUBLIC 4036c 0 google_breakpad::WriteMinidump(char const*, int, void const*, unsigned long, bool, unsigned long, bool)
PUBLIC 406c0 0 google_breakpad::WriteMinidump(int, int, void const*, unsigned long, bool, unsigned long, bool)
PUBLIC 407f8 0 google_breakpad::WriteMinidump(char const*, int, int)
PUBLIC 4173c 0 google_breakpad::WriteMinidump(char const*, int, void const*, unsigned long, std::__ndk1::list<google_breakpad::MappingEntry, std::__ndk1::allocator<google_breakpad::MappingEntry> > const&, std::__ndk1::list<google_breakpad::AppMemory, std::__ndk1::allocator<google_breakpad::AppMemory> > const&, bool, unsigned long, bool)
PUBLIC 417f0 0 google_breakpad::WriteMinidump(int, int, void const*, unsigned long, std::__ndk1::list<google_breakpad::MappingEntry, std::__ndk1::allocator<google_breakpad::MappingEntry> > const&, std::__ndk1::list<google_breakpad::AppMemory, std::__ndk1::allocator<google_breakpad::AppMemory> > const&, bool, unsigned long, bool)
PUBLIC 418a4 0 google_breakpad::WriteMinidump(char const*, long, int, void const*, unsigned long, std::__ndk1::list<google_breakpad::MappingEntry, std::__ndk1::allocator<google_breakpad::MappingEntry> > const&, std::__ndk1::list<google_breakpad::AppMemory, std::__ndk1::allocator<google_breakpad::AppMemory> > const&, bool, unsigned long, bool)
PUBLIC 4194c 0 google_breakpad::WriteMinidump(int, long, int, void const*, unsigned long, std::__ndk1::list<google_breakpad::MappingEntry, std::__ndk1::allocator<google_breakpad::MappingEntry> > const&, std::__ndk1::list<google_breakpad::AppMemory, std::__ndk1::allocator<google_breakpad::AppMemory> > const&, bool, unsigned long, bool)
PUBLIC 419fc 0 google_breakpad::WriteMinidump(char const*, std::__ndk1::list<google_breakpad::MappingEntry, std::__ndk1::allocator<google_breakpad::MappingEntry> > const&, std::__ndk1::list<google_breakpad::AppMemory, std::__ndk1::allocator<google_breakpad::AppMemory> > const&, google_breakpad::LinuxDumper*)
PUBLIC 41b50 0 google_breakpad::wasteful_vector<MDMemoryDescriptor>::wasteful_vector(google_breakpad::PageAllocator*, unsigned int)
PUBLIC 41c04 0 google_breakpad::wasteful_vector<MDMemoryDescriptor>::~wasteful_vector()
PUBLIC 41c28 0 google_breakpad::PageStdAllocator<MDMemoryDescriptor>::PageStdAllocator(google_breakpad::PageAllocator&)
PUBLIC 41cac 0 std::__ndk1::vector<MDMemoryDescriptor, google_breakpad::PageStdAllocator<MDMemoryDescriptor> >::reserve(unsigned long)
PUBLIC 41e88 0 std::__ndk1::__compressed_pair<MDMemoryDescriptor*, google_breakpad::PageStdAllocator<MDMemoryDescriptor> >::__compressed_pair<decltype(nullptr), google_breakpad::PageStdAllocator<MDMemoryDescriptor> const&>(decltype(nullptr)&&, google_breakpad::PageStdAllocator<MDMemoryDescriptor> const&)
PUBLIC 41f0c 0 std::__ndk1::__compressed_pair_elem<MDMemoryDescriptor*, 0, false>::__compressed_pair_elem<decltype(nullptr), void>(decltype(nullptr)&&)
PUBLIC 41f68 0 std::__ndk1::__compressed_pair_elem<google_breakpad::PageStdAllocator<MDMemoryDescriptor>, 1, false>::__compressed_pair_elem<google_breakpad::PageStdAllocator<MDMemoryDescriptor> const&, void>(google_breakpad::PageStdAllocator<MDMemoryDescriptor> const&)
PUBLIC 42034 0 std::__ndk1::__split_buffer<MDMemoryDescriptor, google_breakpad::PageStdAllocator<MDMemoryDescriptor>&>::__split_buffer(unsigned long, unsigned long, google_breakpad::PageStdAllocator<MDMemoryDescriptor>&)
PUBLIC 42120 0 std::__ndk1::vector<MDMemoryDescriptor, google_breakpad::PageStdAllocator<MDMemoryDescriptor> >::__swap_out_circular_buffer(std::__ndk1::__split_buffer<MDMemoryDescriptor, google_breakpad::PageStdAllocator<MDMemoryDescriptor>&>&)
PUBLIC 42218 0 std::__ndk1::__split_buffer<MDMemoryDescriptor, google_breakpad::PageStdAllocator<MDMemoryDescriptor>&>::~__split_buffer()
PUBLIC 42390 0 std::__ndk1::__compressed_pair<MDMemoryDescriptor*, google_breakpad::PageStdAllocator<MDMemoryDescriptor>&>::__compressed_pair<decltype(nullptr), google_breakpad::PageStdAllocator<MDMemoryDescriptor>&>(decltype(nullptr)&&, google_breakpad::PageStdAllocator<MDMemoryDescriptor>&)
PUBLIC 424b4 0 std::__ndk1::__compressed_pair_elem<google_breakpad::PageStdAllocator<MDMemoryDescriptor>&, 1, false>::__compressed_pair_elem<google_breakpad::PageStdAllocator<MDMemoryDescriptor>&, void>(google_breakpad::PageStdAllocator<MDMemoryDescriptor>&)
PUBLIC 424f0 0 google_breakpad::PageStdAllocator<MDMemoryDescriptor>::allocate(unsigned long, void const*)
PUBLIC 42794 0 void std::__ndk1::allocator_traits<google_breakpad::PageStdAllocator<MDMemoryDescriptor> >::__construct_backward<MDMemoryDescriptor*>(google_breakpad::PageStdAllocator<MDMemoryDescriptor>&, MDMemoryDescriptor*, MDMemoryDescriptor*, MDMemoryDescriptor*&)
PUBLIC 42a2c 0 void std::__ndk1::allocator_traits<google_breakpad::PageStdAllocator<MDMemoryDescriptor> >::construct<MDMemoryDescriptor, MDMemoryDescriptor>(google_breakpad::PageStdAllocator<MDMemoryDescriptor>&, MDMemoryDescriptor*, MDMemoryDescriptor&&)
PUBLIC 42ab4 0 void std::__ndk1::allocator_traits<google_breakpad::PageStdAllocator<MDMemoryDescriptor> >::__construct<MDMemoryDescriptor, MDMemoryDescriptor>(std::__ndk1::integral_constant<bool, true>, google_breakpad::PageStdAllocator<MDMemoryDescriptor>&, MDMemoryDescriptor*, MDMemoryDescriptor&&)
PUBLIC 42b28 0 void std::__ndk1::allocator<MDMemoryDescriptor>::construct<MDMemoryDescriptor, MDMemoryDescriptor>(MDMemoryDescriptor*, MDMemoryDescriptor&&)
PUBLIC 42d48 0 void std::__ndk1::allocator_traits<google_breakpad::PageStdAllocator<MDMemoryDescriptor> >::destroy<MDMemoryDescriptor>(google_breakpad::PageStdAllocator<MDMemoryDescriptor>&, MDMemoryDescriptor*)
PUBLIC 42d7c 0 void std::__ndk1::allocator_traits<google_breakpad::PageStdAllocator<MDMemoryDescriptor> >::__destroy<MDMemoryDescriptor>(std::__ndk1::integral_constant<bool, true>, google_breakpad::PageStdAllocator<MDMemoryDescriptor>&, MDMemoryDescriptor*)
PUBLIC 42dc4 0 google_breakpad::PageStdAllocator<MDMemoryDescriptor>::deallocate(MDMemoryDescriptor*, unsigned long)
PUBLIC 42e2c 0 std::__ndk1::__vector_base<MDMemoryDescriptor, google_breakpad::PageStdAllocator<MDMemoryDescriptor> >::~__vector_base()
PUBLIC 431a8 0 google_breakpad::TypedMDRVA<MDRawDirectory>::TypedMDRVA(google_breakpad::MinidumpFileWriter*)
PUBLIC 43214 0 google_breakpad::TypedMDRVA<MDRawHeader>::TypedMDRVA(google_breakpad::MinidumpFileWriter*)
PUBLIC 43280 0 google_breakpad::TypedMDRVA<MDRawHeader>::Allocate()
PUBLIC 432d0 0 google_breakpad::TypedMDRVA<MDRawDirectory>::AllocateArray(unsigned long)
PUBLIC 4336c 0 google_breakpad::TypedMDRVA<MDRawHeader>::get()
PUBLIC 43388 0 google_breakpad::UntypedMDRVA::position() const
PUBLIC 433a0 0 google_breakpad::TypedMDRVA<MDRawHeader>::~TypedMDRVA()
PUBLIC 43df4 0 google_breakpad::TypedMDRVA<MDRawDirectory>::CopyIndex(unsigned int, MDRawDirectory*)
PUBLIC 4586c 0 google_breakpad::TypedMDRVA<MDRawDirectory>::~TypedMDRVA()
PUBLIC 458b8 0 google_breakpad::MinidumpFileWriter::position() const
PUBLIC 458d0 0 google_breakpad::minidump_size<MDRawHeader>::size()
PUBLIC 458d8 0 google_breakpad::minidump_size<MDRawDirectory>::size()
PUBLIC 458e0 0 google_breakpad::TypedMDRVA<MDRawHeader>::Flush()
PUBLIC 45948 0 google_breakpad::LinuxDumper::threads()
PUBLIC 45964 0 google_breakpad::TypedMDRVA<unsigned int>::TypedMDRVA(google_breakpad::MinidumpFileWriter*)
PUBLIC 459a0 0 google_breakpad::TypedMDRVA<unsigned int>::AllocateObjectAndArray(unsigned long, unsigned long)
PUBLIC 45a54 0 google_breakpad::UntypedMDRVA::location() const
PUBLIC 45a84 0 google_breakpad::TypedMDRVA<unsigned int>::get()
PUBLIC 45e18 0 google_breakpad::UntypedMDRVA::UntypedMDRVA(google_breakpad::MinidumpFileWriter*)
PUBLIC 45e64 0 google_breakpad::UntypedMDRVA::Copy(void const*, unsigned long)
PUBLIC 45fa0 0 google_breakpad::TypedMDRVA<MDRawContextARM64_Old>::TypedMDRVA(google_breakpad::MinidumpFileWriter*)
PUBLIC 4600c 0 google_breakpad::TypedMDRVA<MDRawContextARM64_Old>::Allocate()
PUBLIC 4605c 0 google_breakpad::TypedMDRVA<MDRawContextARM64_Old>::get()
PUBLIC 46078 0 google_breakpad::TypedMDRVA<MDRawContextARM64_Old>::~TypedMDRVA()
PUBLIC 460c4 0 google_breakpad::TypedMDRVA<unsigned int>::CopyIndexAfterObject(unsigned int, void const*, unsigned long)
PUBLIC 461b0 0 google_breakpad::TypedMDRVA<unsigned int>::~TypedMDRVA()
PUBLIC 461fc 0 google_breakpad::minidump_size<unsigned int>::size()
PUBLIC 4621c 0 void std::__ndk1::allocator_traits<google_breakpad::PageStdAllocator<MDMemoryDescriptor> >::construct<MDMemoryDescriptor, MDMemoryDescriptor const&>(google_breakpad::PageStdAllocator<MDMemoryDescriptor>&, MDMemoryDescriptor*, MDMemoryDescriptor const&)
PUBLIC 46290 0 void std::__ndk1::vector<MDMemoryDescriptor, google_breakpad::PageStdAllocator<MDMemoryDescriptor> >::__push_back_slow_path<MDMemoryDescriptor const&>(MDMemoryDescriptor const&)
PUBLIC 463bc 0 void std::__ndk1::allocator_traits<google_breakpad::PageStdAllocator<MDMemoryDescriptor> >::__construct<MDMemoryDescriptor, MDMemoryDescriptor const&>(std::__ndk1::integral_constant<bool, true>, google_breakpad::PageStdAllocator<MDMemoryDescriptor>&, MDMemoryDescriptor*, MDMemoryDescriptor const&)
PUBLIC 46430 0 void std::__ndk1::allocator<MDMemoryDescriptor>::construct<MDMemoryDescriptor, MDMemoryDescriptor const&>(MDMemoryDescriptor*, MDMemoryDescriptor const&)
PUBLIC 4656c 0 std::__ndk1::vector<MDMemoryDescriptor, google_breakpad::PageStdAllocator<MDMemoryDescriptor> >::max_size() const
PUBLIC 466d4 0 google_breakpad::minidump_size<MDRawContextARM64_Old>::size()
PUBLIC 466dc 0 google_breakpad::TypedMDRVA<MDRawContextARM64_Old>::Flush()
PUBLIC 46744 0 google_breakpad::TypedMDRVA<unsigned int>::Flush()
PUBLIC 469ac 0 google_breakpad::TypedMDRVA<unsigned int>::Allocate()
PUBLIC 47060 0 google_breakpad::TypedMDRVA<MDRawExceptionStream>::TypedMDRVA(google_breakpad::MinidumpFileWriter*)
PUBLIC 470cc 0 google_breakpad::TypedMDRVA<MDRawExceptionStream>::Allocate()
PUBLIC 4711c 0 google_breakpad::TypedMDRVA<MDRawExceptionStream>::get()
PUBLIC 47138 0 google_breakpad::LinuxDumper::crash_signal_code() const
PUBLIC 47150 0 google_breakpad::TypedMDRVA<MDRawExceptionStream>::~TypedMDRVA()
PUBLIC 4719c 0 google_breakpad::minidump_size<MDRawExceptionStream>::size()
PUBLIC 471a4 0 google_breakpad::TypedMDRVA<MDRawExceptionStream>::Flush()
PUBLIC 4720c 0 google_breakpad::TypedMDRVA<MDRawSystemInfo>::TypedMDRVA(google_breakpad::MinidumpFileWriter*)
PUBLIC 47278 0 google_breakpad::TypedMDRVA<MDRawSystemInfo>::Allocate()
PUBLIC 472c8 0 google_breakpad::TypedMDRVA<MDRawSystemInfo>::get()
PUBLIC 47c4c 0 google_breakpad::TypedMDRVA<MDRawSystemInfo>::~TypedMDRVA()
PUBLIC 47c98 0 google_breakpad::minidump_size<MDRawSystemInfo>::size()
PUBLIC 47ca0 0 google_breakpad::CpuSet::CpuSet()
PUBLIC 47d0c 0 google_breakpad::CpuSet::ParseSysFile(int)
PUBLIC 48054 0 google_breakpad::CpuSet::IntersectWith(google_breakpad::CpuSet const&)
PUBLIC 480d0 0 google_breakpad::CpuSet::GetCount()
PUBLIC 48158 0 google_breakpad::ProcCpuInfoReader::ProcCpuInfoReader(int)
PUBLIC 481a4 0 google_breakpad::ProcCpuInfoReader::GetNextField(char const**)
PUBLIC 483d0 0 google_breakpad::ProcCpuInfoReader::GetValue()
PUBLIC 48450 0 google_breakpad::ProcCpuInfoReader::GetValueAndLen(unsigned long*)
PUBLIC 48640 0 google_breakpad::CpuSet::SetBit(unsigned long)
PUBLIC 48758 0 google_breakpad::TypedMDRVA<MDRawSystemInfo>::Flush()
PUBLIC 487c0 0 google_breakpad::LinuxDumper::auxv()
PUBLIC 4880c 0 google_breakpad::TypedMDRVA<MDRawLinkMap64>::TypedMDRVA(google_breakpad::MinidumpFileWriter*)
PUBLIC 48870 0 google_breakpad::TypedMDRVA<MDRawLinkMap64>::AllocateArray(unsigned long)
PUBLIC 4890c 0 google_breakpad::TypedMDRVA<MDRawLinkMap64>::CopyIndex(unsigned int, MDRawLinkMap64*)
PUBLIC 48a0c 0 google_breakpad::TypedMDRVA<MDRawLinkMap64>::~TypedMDRVA()
PUBLIC 48a58 0 google_breakpad::TypedMDRVA<MDRawDebug64>::TypedMDRVA(google_breakpad::MinidumpFileWriter*)
PUBLIC 48ac4 0 google_breakpad::TypedMDRVA<MDRawDebug64>::AllocateObjectAndArray(unsigned long, unsigned long)
PUBLIC 48b78 0 google_breakpad::TypedMDRVA<MDRawDebug64>::get()
PUBLIC 48b94 0 google_breakpad::wasteful_vector<char>::wasteful_vector(google_breakpad::PageAllocator*, unsigned int)
PUBLIC 48c48 0 std::__ndk1::vector<char, google_breakpad::PageStdAllocator<char> >::resize(unsigned long)
PUBLIC 48d00 0 google_breakpad::TypedMDRVA<MDRawDebug64>::CopyIndexAfterObject(unsigned int, void const*, unsigned long)
PUBLIC 48dec 0 google_breakpad::wasteful_vector<char>::~wasteful_vector()
PUBLIC 48e10 0 google_breakpad::TypedMDRVA<MDRawDebug64>::~TypedMDRVA()
PUBLIC 48e5c 0 google_breakpad::minidump_size<MDRawLinkMap64>::size()
PUBLIC 48e64 0 google_breakpad::TypedMDRVA<MDRawLinkMap64>::Flush()
PUBLIC 48ecc 0 google_breakpad::minidump_size<MDRawDebug64>::size()
PUBLIC 48ed4 0 google_breakpad::PageStdAllocator<char>::PageStdAllocator(google_breakpad::PageAllocator&)
PUBLIC 48f58 0 std::__ndk1::vector<char, google_breakpad::PageStdAllocator<char> >::reserve(unsigned long)
PUBLIC 49124 0 std::__ndk1::__compressed_pair<char*, google_breakpad::PageStdAllocator<char> >::__compressed_pair<decltype(nullptr), google_breakpad::PageStdAllocator<char> const&>(decltype(nullptr)&&, google_breakpad::PageStdAllocator<char> const&)
PUBLIC 491a8 0 std::__ndk1::__compressed_pair_elem<char*, 0, false>::__compressed_pair_elem<decltype(nullptr), void>(decltype(nullptr)&&)
PUBLIC 49204 0 std::__ndk1::__compressed_pair_elem<google_breakpad::PageStdAllocator<char>, 1, false>::__compressed_pair_elem<google_breakpad::PageStdAllocator<char> const&, void>(google_breakpad::PageStdAllocator<char> const&)
PUBLIC 492c8 0 std::__ndk1::__split_buffer<char, google_breakpad::PageStdAllocator<char>&>::__split_buffer(unsigned long, unsigned long, google_breakpad::PageStdAllocator<char>&)
PUBLIC 493b4 0 std::__ndk1::vector<char, google_breakpad::PageStdAllocator<char> >::__swap_out_circular_buffer(std::__ndk1::__split_buffer<char, google_breakpad::PageStdAllocator<char>&>&)
PUBLIC 494ac 0 std::__ndk1::__split_buffer<char, google_breakpad::PageStdAllocator<char>&>::~__split_buffer()
PUBLIC 49614 0 std::__ndk1::__compressed_pair<char*, google_breakpad::PageStdAllocator<char>&>::__compressed_pair<decltype(nullptr), google_breakpad::PageStdAllocator<char>&>(decltype(nullptr)&&, google_breakpad::PageStdAllocator<char>&)
PUBLIC 49738 0 std::__ndk1::__compressed_pair_elem<google_breakpad::PageStdAllocator<char>&, 1, false>::__compressed_pair_elem<google_breakpad::PageStdAllocator<char>&, void>(google_breakpad::PageStdAllocator<char>&)
PUBLIC 49774 0 google_breakpad::PageStdAllocator<char>::allocate(unsigned long, void const*)
PUBLIC 49920 0 void std::__ndk1::allocator_traits<google_breakpad::PageStdAllocator<char> >::__construct_backward<char*>(google_breakpad::PageStdAllocator<char>&, char*, char*, char*&)
PUBLIC 49b88 0 void std::__ndk1::allocator_traits<google_breakpad::PageStdAllocator<char> >::construct<char, char>(google_breakpad::PageStdAllocator<char>&, char*, char&&)
PUBLIC 49c10 0 void std::__ndk1::allocator_traits<google_breakpad::PageStdAllocator<char> >::__construct<char, char>(std::__ndk1::integral_constant<bool, true>, google_breakpad::PageStdAllocator<char>&, char*, char&&)
PUBLIC 49c84 0 void std::__ndk1::allocator<char>::construct<char, char>(char*, char&&)
PUBLIC 49e80 0 void std::__ndk1::allocator_traits<google_breakpad::PageStdAllocator<char> >::destroy<char>(google_breakpad::PageStdAllocator<char>&, char*)
PUBLIC 49eb4 0 void std::__ndk1::allocator_traits<google_breakpad::PageStdAllocator<char> >::__destroy<char>(std::__ndk1::integral_constant<bool, true>, google_breakpad::PageStdAllocator<char>&, char*)
PUBLIC 49efc 0 google_breakpad::PageStdAllocator<char>::deallocate(char*, unsigned long)
PUBLIC 49f64 0 std::__ndk1::__vector_base<char, google_breakpad::PageStdAllocator<char> >::~__vector_base()
PUBLIC 4a0b4 0 std::__ndk1::vector<char, google_breakpad::PageStdAllocator<char> >::__append(unsigned long)
PUBLIC 4a250 0 std::__ndk1::vector<char, google_breakpad::PageStdAllocator<char> >::__construct_at_end(unsigned long)
PUBLIC 4a418 0 std::__ndk1::__split_buffer<char, google_breakpad::PageStdAllocator<char>&>::__construct_at_end(unsigned long)
PUBLIC 4a4d4 0 void std::__ndk1::allocator_traits<google_breakpad::PageStdAllocator<char> >::construct<char>(google_breakpad::PageStdAllocator<char>&, char*)
PUBLIC 4a518 0 void std::__ndk1::allocator_traits<google_breakpad::PageStdAllocator<char> >::__construct<char>(std::__ndk1::integral_constant<bool, true>, google_breakpad::PageStdAllocator<char>&, char*)
PUBLIC 4a54c 0 void std::__ndk1::allocator<char>::construct<char>(char*)
PUBLIC 4a56c 0 std::__ndk1::vector<char, google_breakpad::PageStdAllocator<char> >::max_size() const
PUBLIC 4a780 0 google_breakpad::TypedMDRVA<MDRawDebug64>::Flush()
PUBLIC 4a7e8 0 google_breakpad::TypedMDRVA<MDRawDirectory>::Flush()
PUBLIC 4a850 0 google_breakpad::MinidumpFileWriter::MinidumpFileWriter()
PUBLIC 4a880 0 google_breakpad::MinidumpFileWriter::~MinidumpFileWriter()
PUBLIC 4a8c0 0 google_breakpad::MinidumpFileWriter::Close()
PUBLIC 4a9a0 0 google_breakpad::MinidumpFileWriter::Open(char const*)
PUBLIC 4aa9c 0 google_breakpad::MinidumpFileWriter::SetFile(int)
PUBLIC 4acd8 0 google_breakpad::MinidumpFileWriter::CopyStringToMDString(wchar_t const*, unsigned int, google_breakpad::TypedMDRVA<MDString>*)
PUBLIC 4ae20 0 google_breakpad::TypedMDRVA<MDString>::CopyIndexAfterObject(unsigned int, void const*, unsigned long)
PUBLIC 4af0c 0 google_breakpad::MinidumpFileWriter::CopyStringToMDString(char const*, unsigned int, google_breakpad::TypedMDRVA<MDString>*)
PUBLIC 4b060 0 google_breakpad::MinidumpFileWriter::WriteString(wchar_t const*, unsigned int, MDLocationDescriptor*)
PUBLIC 4b0a4 0 bool google_breakpad::MinidumpFileWriter::WriteStringCore<wchar_t>(wchar_t const*, unsigned int, MDLocationDescriptor*)
PUBLIC 4b358 0 google_breakpad::MinidumpFileWriter::WriteString(char const*, unsigned int, MDLocationDescriptor*)
PUBLIC 4b39c 0 bool google_breakpad::MinidumpFileWriter::WriteStringCore<char>(char const*, unsigned int, MDLocationDescriptor*)
PUBLIC 4b650 0 google_breakpad::MinidumpFileWriter::WriteMemory(void const*, unsigned long, MDMemoryDescriptor*)
PUBLIC 4b7c4 0 google_breakpad::UntypedMDRVA::Allocate(unsigned long)
PUBLIC 4b87c 0 google_breakpad::UntypedMDRVA::size() const
PUBLIC 4b894 0 google_breakpad::MinidumpFileWriter::Allocate(unsigned long)
PUBLIC 4ba70 0 google_breakpad::MinidumpFileWriter::Copy(unsigned int, void const*, long)
PUBLIC 4bd80 0 google_breakpad::UntypedMDRVA::Copy(unsigned int, void const*, unsigned long)
PUBLIC 4bf6c 0 google_breakpad::minidump_size<MDString>::size()
PUBLIC 4bf74 0 google_breakpad::TypedMDRVA<MDString>::TypedMDRVA(google_breakpad::MinidumpFileWriter*)
PUBLIC 4bfe0 0 google_breakpad::TypedMDRVA<MDString>::AllocateObjectAndArray(unsigned long, unsigned long)
PUBLIC 4c094 0 google_breakpad::TypedMDRVA<MDString>::get()
PUBLIC 4c0b0 0 google_breakpad::TypedMDRVA<MDString>::~TypedMDRVA()
PUBLIC 4c0fc 0 google_breakpad::TypedMDRVA<MDString>::Flush()
PUBLIC 4c164 0 google_breakpad::UTF8ToUTF16(char const*, std::__ndk1::vector<unsigned short, std::__ndk1::allocator<unsigned short> >*)
PUBLIC 4c32c 0 std::__ndk1::vector<unsigned short, std::__ndk1::allocator<unsigned short> >::insert(std::__ndk1::__wrap_iter<unsigned short const*>, unsigned long, unsigned short const&)
PUBLIC 4c650 0 _ZNSt6__ndk111__wrap_iterIPKtEC2IPtEERKNS0_IT_EEPNS_9enable_ifIXsr14is_convertibleIS6_S2_EE5valueEvE4typeE
PUBLIC 4c6e4 0 std::__ndk1::vector<unsigned short, std::__ndk1::allocator<unsigned short> >::resize(unsigned long)
PUBLIC 4c780 0 google_breakpad::UTF8ToUTF16Char(char const*, int, unsigned short*)
PUBLIC 4c8a8 0 google_breakpad::UTF32ToUTF16(wchar_t const*, std::__ndk1::vector<unsigned short, std::__ndk1::allocator<unsigned short> >*)
PUBLIC 4ca1c 0 google_breakpad::UTF32ToUTF16Char(wchar_t, unsigned short*)
PUBLIC 4caec 0 google_breakpad::UTF16ToUTF8(std::__ndk1::vector<unsigned short, std::__ndk1::allocator<unsigned short> > const&, bool)
PUBLIC 4cddc 0 google_breakpad::scoped_array<unsigned short>::scoped_array(unsigned short*)
PUBLIC 4cdfc 0 google_breakpad::scoped_array<unsigned short>::reset(unsigned short*)
PUBLIC 4cea0 0 google_breakpad::scoped_array<unsigned short>::get() const
PUBLIC 4cff0 0 google_breakpad::scoped_array<unsigned char>::scoped_array(unsigned char*)
PUBLIC 4d010 0 google_breakpad::scoped_array<unsigned char>::get() const
PUBLIC 4d028 0 google_breakpad::scoped_array<unsigned char>::~scoped_array()
PUBLIC 4d068 0 google_breakpad::scoped_array<unsigned short>::~scoped_array()
PUBLIC 4d24c 0 void std::__ndk1::allocator_traits<std::__ndk1::allocator<unsigned short> >::destroy<unsigned short>(std::__ndk1::allocator<unsigned short>&, unsigned short*)
PUBLIC 4d2c0 0 void std::__ndk1::allocator_traits<std::__ndk1::allocator<unsigned short> >::__destroy<unsigned short>(std::__ndk1::integral_constant<bool, true>, std::__ndk1::allocator<unsigned short>&, unsigned short*)
PUBLIC 4d590 0 std::__ndk1::vector<unsigned short, std::__ndk1::allocator<unsigned short> >::__move_range(unsigned short*, unsigned short*, unsigned short*)
PUBLIC 4d800 0 std::__ndk1::__split_buffer<unsigned short, std::__ndk1::allocator<unsigned short>&>::__split_buffer(unsigned long, unsigned long, std::__ndk1::allocator<unsigned short>&)
PUBLIC 4d8ec 0 std::__ndk1::__split_buffer<unsigned short, std::__ndk1::allocator<unsigned short>&>::__construct_at_end(unsigned long, unsigned short const&)
PUBLIC 4d998 0 std::__ndk1::vector<unsigned short, std::__ndk1::allocator<unsigned short> >::__swap_out_circular_buffer(std::__ndk1::__split_buffer<unsigned short, std::__ndk1::allocator<unsigned short>&>&, unsigned short*)
PUBLIC 4dac4 0 std::__ndk1::__split_buffer<unsigned short, std::__ndk1::allocator<unsigned short>&>::~__split_buffer()
PUBLIC 4dbb8 0 void std::__ndk1::allocator_traits<std::__ndk1::allocator<unsigned short> >::construct<unsigned short, unsigned short const&>(std::__ndk1::allocator<unsigned short>&, unsigned short*, unsigned short const&)
PUBLIC 4dc1c 0 void std::__ndk1::allocator_traits<std::__ndk1::allocator<unsigned short> >::__construct<unsigned short, unsigned short const&>(std::__ndk1::integral_constant<bool, true>, std::__ndk1::allocator<unsigned short>&, unsigned short*, unsigned short const&)
PUBLIC 4dc90 0 void std::__ndk1::allocator<unsigned short>::construct<unsigned short, unsigned short const&>(unsigned short*, unsigned short const&)
PUBLIC 4dcd4 0 void std::__ndk1::allocator_traits<std::__ndk1::allocator<unsigned short> >::construct<unsigned short, unsigned short>(std::__ndk1::allocator<unsigned short>&, unsigned short*, unsigned short&&)
PUBLIC 4ddb0 0 void std::__ndk1::allocator_traits<std::__ndk1::allocator<unsigned short> >::__construct<unsigned short, unsigned short>(std::__ndk1::integral_constant<bool, true>, std::__ndk1::allocator<unsigned short>&, unsigned short*, unsigned short&&)
PUBLIC 4de24 0 void std::__ndk1::allocator<unsigned short>::construct<unsigned short, unsigned short>(unsigned short*, unsigned short&&)
PUBLIC 4df8c 0 std::__ndk1::vector<unsigned short, std::__ndk1::allocator<unsigned short> >::max_size() const
PUBLIC 4e0ec 0 std::__ndk1::__compressed_pair<unsigned short*, std::__ndk1::allocator<unsigned short>&>::__compressed_pair<decltype(nullptr), std::__ndk1::allocator<unsigned short>&>(decltype(nullptr)&&, std::__ndk1::allocator<unsigned short>&)
PUBLIC 4e1fc 0 std::__ndk1::__compressed_pair_elem<unsigned short*, 0, false>::__compressed_pair_elem<decltype(nullptr), void>(decltype(nullptr)&&)
PUBLIC 4e258 0 std::__ndk1::__compressed_pair_elem<std::__ndk1::allocator<unsigned short>&, 1, false>::__compressed_pair_elem<std::__ndk1::allocator<unsigned short>&, void>(std::__ndk1::allocator<unsigned short>&)
PUBLIC 4e440 0 _ZNSt6__ndk116allocator_traitsINS_9allocatorItEEE20__construct_backwardItEENS_9enable_ifIXaaooL_ZNS_17integral_constantIbLb1EE5valueEEntsr15__has_constructIS2_PT_S8_EE5valuesr31is_trivially_move_constructibleIS8_EE5valueEvE4typeERS2_S9_S9_RS9_
PUBLIC 4e4c8 0 _ZNSt6__ndk116allocator_traitsINS_9allocatorItEEE19__construct_forwardItEENS_9enable_ifIXaaooL_ZNS_17integral_constantIbLb1EE5valueEEntsr15__has_constructIS2_PT_S8_EE5valuesr31is_trivially_move_constructibleIS8_EE5valueEvE4typeERS2_S9_S9_RS9_
PUBLIC 4e970 0 std::__ndk1::vector<unsigned short, std::__ndk1::allocator<unsigned short> >::__append(unsigned long)
PUBLIC 4eb0c 0 std::__ndk1::vector<unsigned short, std::__ndk1::allocator<unsigned short> >::__construct_at_end(unsigned long)
PUBLIC 4ebf0 0 std::__ndk1::__split_buffer<unsigned short, std::__ndk1::allocator<unsigned short>&>::__construct_at_end(unsigned long)
PUBLIC 4ec94 0 std::__ndk1::vector<unsigned short, std::__ndk1::allocator<unsigned short> >::__swap_out_circular_buffer(std::__ndk1::__split_buffer<unsigned short, std::__ndk1::allocator<unsigned short>&>&)
PUBLIC 4ed8c 0 void std::__ndk1::allocator_traits<std::__ndk1::allocator<unsigned short> >::construct<unsigned short>(std::__ndk1::allocator<unsigned short>&, unsigned short*)
PUBLIC 4edc0 0 void std::__ndk1::allocator_traits<std::__ndk1::allocator<unsigned short> >::__construct<unsigned short>(std::__ndk1::integral_constant<bool, true>, std::__ndk1::allocator<unsigned short>&, unsigned short*)
PUBLIC 4edf4 0 void std::__ndk1::allocator<unsigned short>::construct<unsigned short>(unsigned short*)
PUBLIC 4ef00 0 google_breakpad::IsValidElf(void const*)
PUBLIC 4ef54 0 google_breakpad::ElfClass(void const*)
PUBLIC 4ef74 0 google_breakpad::FindElfSection(void const*, char const*, unsigned int, void const**, unsigned long*)
PUBLIC 4f680 0 google_breakpad::FindElfSegments(void const*, unsigned int, google_breakpad::wasteful_vector<google_breakpad::ElfSegment>*)
PUBLIC 4fc24 0 elf32_shdr const* google_breakpad::GetOffset<google_breakpad::ElfClass32, elf32_shdr>(google_breakpad::ElfClass32::Ehdr const*, google_breakpad::ElfClass32::Off)
PUBLIC 4fc50 0 char const* google_breakpad::GetOffset<google_breakpad::ElfClass32, char>(google_breakpad::ElfClass32::Ehdr const*, google_breakpad::ElfClass32::Off)
PUBLIC 4fc7c 0 google_breakpad::ElfClass32::Shdr const* google_breakpad::FindElfSectionByName<google_breakpad::ElfClass32>(char const*, google_breakpad::ElfClass32::Word, google_breakpad::ElfClass32::Shdr const*, char const*, char const*, int)
PUBLIC 4fea4 0 elf64_shdr const* google_breakpad::GetOffset<google_breakpad::ElfClass64, elf64_shdr>(google_breakpad::ElfClass64::Ehdr const*, google_breakpad::ElfClass64::Off)
PUBLIC 4fec4 0 char const* google_breakpad::GetOffset<google_breakpad::ElfClass64, char>(google_breakpad::ElfClass64::Ehdr const*, google_breakpad::ElfClass64::Off)
PUBLIC 4fee4 0 google_breakpad::ElfClass64::Shdr const* google_breakpad::FindElfSectionByName<google_breakpad::ElfClass64>(char const*, google_breakpad::ElfClass64::Word, google_breakpad::ElfClass64::Shdr const*, char const*, char const*, int)
PUBLIC 5010c 0 elf32_phdr const* google_breakpad::GetOffset<google_breakpad::ElfClass32, elf32_phdr>(google_breakpad::ElfClass32::Ehdr const*, google_breakpad::ElfClass32::Off)
PUBLIC 50278 0 void std::__ndk1::allocator_traits<google_breakpad::PageStdAllocator<google_breakpad::ElfSegment> >::construct<google_breakpad::ElfSegment, google_breakpad::ElfSegment const&>(google_breakpad::PageStdAllocator<google_breakpad::ElfSegment>&, google_breakpad::ElfSegment*, google_breakpad::ElfSegment const&)
PUBLIC 5032c 0 void std::__ndk1::vector<google_breakpad::ElfSegment, google_breakpad::PageStdAllocator<google_breakpad::ElfSegment> >::__push_back_slow_path<google_breakpad::ElfSegment const&>(google_breakpad::ElfSegment const&)
PUBLIC 50490 0 void std::__ndk1::allocator_traits<google_breakpad::PageStdAllocator<google_breakpad::ElfSegment> >::__construct<google_breakpad::ElfSegment, google_breakpad::ElfSegment const&>(std::__ndk1::integral_constant<bool, true>, google_breakpad::PageStdAllocator<google_breakpad::ElfSegment>&, google_breakpad::ElfSegment*, google_breakpad::ElfSegment const&)
PUBLIC 50504 0 void std::__ndk1::allocator<google_breakpad::ElfSegment>::construct<google_breakpad::ElfSegment, google_breakpad::ElfSegment const&>(google_breakpad::ElfSegment*, google_breakpad::ElfSegment const&)
PUBLIC 506a8 0 std::__ndk1::__split_buffer<google_breakpad::ElfSegment, google_breakpad::PageStdAllocator<google_breakpad::ElfSegment>&>::__split_buffer(unsigned long, unsigned long, google_breakpad::PageStdAllocator<google_breakpad::ElfSegment>&)
PUBLIC 50794 0 std::__ndk1::vector<google_breakpad::ElfSegment, google_breakpad::PageStdAllocator<google_breakpad::ElfSegment> >::__swap_out_circular_buffer(std::__ndk1::__split_buffer<google_breakpad::ElfSegment, google_breakpad::PageStdAllocator<google_breakpad::ElfSegment>&>&)
PUBLIC 5088c 0 std::__ndk1::__split_buffer<google_breakpad::ElfSegment, google_breakpad::PageStdAllocator<google_breakpad::ElfSegment>&>::~__split_buffer()
PUBLIC 50918 0 std::__ndk1::vector<google_breakpad::ElfSegment, google_breakpad::PageStdAllocator<google_breakpad::ElfSegment> >::max_size() const
PUBLIC 50b50 0 std::__ndk1::__compressed_pair<google_breakpad::ElfSegment*, google_breakpad::PageStdAllocator<google_breakpad::ElfSegment>&>::__compressed_pair<decltype(nullptr), google_breakpad::PageStdAllocator<google_breakpad::ElfSegment>&>(decltype(nullptr)&&, google_breakpad::PageStdAllocator<google_breakpad::ElfSegment>&)
PUBLIC 50c60 0 std::__ndk1::__compressed_pair_elem<google_breakpad::ElfSegment*, 0, false>::__compressed_pair_elem<decltype(nullptr), void>(decltype(nullptr)&&)
PUBLIC 50cbc 0 std::__ndk1::__compressed_pair_elem<google_breakpad::PageStdAllocator<google_breakpad::ElfSegment>&, 1, false>::__compressed_pair_elem<google_breakpad::PageStdAllocator<google_breakpad::ElfSegment>&, void>(google_breakpad::PageStdAllocator<google_breakpad::ElfSegment>&)
PUBLIC 50cf8 0 google_breakpad::PageStdAllocator<google_breakpad::ElfSegment>::allocate(unsigned long, void const*)
PUBLIC 50f88 0 void std::__ndk1::allocator_traits<google_breakpad::PageStdAllocator<google_breakpad::ElfSegment> >::__construct_backward<google_breakpad::ElfSegment*>(google_breakpad::PageStdAllocator<google_breakpad::ElfSegment>&, google_breakpad::ElfSegment*, google_breakpad::ElfSegment*, google_breakpad::ElfSegment*&)
PUBLIC 511e0 0 void std::__ndk1::allocator_traits<google_breakpad::PageStdAllocator<google_breakpad::ElfSegment> >::construct<google_breakpad::ElfSegment, google_breakpad::ElfSegment>(google_breakpad::PageStdAllocator<google_breakpad::ElfSegment>&, google_breakpad::ElfSegment*, google_breakpad::ElfSegment&&)
PUBLIC 51268 0 void std::__ndk1::allocator_traits<google_breakpad::PageStdAllocator<google_breakpad::ElfSegment> >::__construct<google_breakpad::ElfSegment, google_breakpad::ElfSegment>(std::__ndk1::integral_constant<bool, true>, google_breakpad::PageStdAllocator<google_breakpad::ElfSegment>&, google_breakpad::ElfSegment*, google_breakpad::ElfSegment&&)
PUBLIC 512dc 0 void std::__ndk1::allocator<google_breakpad::ElfSegment>::construct<google_breakpad::ElfSegment, google_breakpad::ElfSegment>(google_breakpad::ElfSegment*, google_breakpad::ElfSegment&&)
PUBLIC 514d8 0 void std::__ndk1::allocator_traits<google_breakpad::PageStdAllocator<google_breakpad::ElfSegment> >::destroy<google_breakpad::ElfSegment>(google_breakpad::PageStdAllocator<google_breakpad::ElfSegment>&, google_breakpad::ElfSegment*)
PUBLIC 5150c 0 void std::__ndk1::allocator_traits<google_breakpad::PageStdAllocator<google_breakpad::ElfSegment> >::__destroy<google_breakpad::ElfSegment>(std::__ndk1::integral_constant<bool, true>, google_breakpad::PageStdAllocator<google_breakpad::ElfSegment>&, google_breakpad::ElfSegment*)
PUBLIC 51554 0 google_breakpad::PageStdAllocator<google_breakpad::ElfSegment>::deallocate(google_breakpad::ElfSegment*, unsigned long)
PUBLIC 515bc 0 elf64_phdr const* google_breakpad::GetOffset<google_breakpad::ElfClass64, elf64_phdr>(google_breakpad::ElfClass64::Ehdr const*, google_breakpad::ElfClass64::Off)
PUBLIC 515dc 0 google_breakpad::FileID::FileID(char const*)
PUBLIC 51608 0 google_breakpad::FileID::ElfFileIdentifierFromMappedFile(void const*, google_breakpad::wasteful_vector<unsigned char>&)
PUBLIC 51a1c 0 google_breakpad::FileID::ElfFileIdentifier(google_breakpad::wasteful_vector<unsigned char>&)
PUBLIC 51b3c 0 google_breakpad::FileID::ConvertIdentifierToUUIDString(google_breakpad::wasteful_vector<unsigned char> const&)
PUBLIC 51d94 0 google_breakpad::FileID::ConvertIdentifierToString(google_breakpad::wasteful_vector<unsigned char> const&)
PUBLIC 51de8 0 google_breakpad::auto_wasteful_vector<google_breakpad::ElfSegment, 2u>::auto_wasteful_vector(google_breakpad::PageAllocator*)
PUBLIC 52140 0 google_breakpad::auto_wasteful_vector<google_breakpad::ElfSegment, 2u>::~auto_wasteful_vector()
PUBLIC 52164 0 google_breakpad::PageStdAllocator<google_breakpad::ElfSegment>::PageStdAllocator(google_breakpad::PageAllocator&, google_breakpad::ElfSegment*, unsigned long)
PUBLIC 521b8 0 google_breakpad::wasteful_vector<google_breakpad::ElfSegment>::wasteful_vector(google_breakpad::PageStdAllocator<google_breakpad::ElfSegment>)
PUBLIC 521dc 0 std::__ndk1::vector<google_breakpad::ElfSegment, google_breakpad::PageStdAllocator<google_breakpad::ElfSegment> >::reserve(unsigned long)
PUBLIC 522d4 0 google_breakpad::wasteful_vector<google_breakpad::ElfSegment>::~wasteful_vector()
PUBLIC 523c0 0 std::__ndk1::__compressed_pair<google_breakpad::ElfSegment*, google_breakpad::PageStdAllocator<google_breakpad::ElfSegment> >::__compressed_pair<decltype(nullptr), google_breakpad::PageStdAllocator<google_breakpad::ElfSegment> const&>(decltype(nullptr)&&, google_breakpad::PageStdAllocator<google_breakpad::ElfSegment> const&)
PUBLIC 52458 0 std::__ndk1::__compressed_pair_elem<google_breakpad::PageStdAllocator<google_breakpad::ElfSegment>, 1, false>::__compressed_pair_elem<google_breakpad::PageStdAllocator<google_breakpad::ElfSegment> const&, void>(google_breakpad::PageStdAllocator<google_breakpad::ElfSegment> const&)
PUBLIC 525d4 0 std::__ndk1::__vector_base<google_breakpad::ElfSegment, google_breakpad::PageStdAllocator<google_breakpad::ElfSegment> >::~__vector_base()
PUBLIC 528ac 0 std::__ndk1::vector<unsigned char, google_breakpad::PageStdAllocator<unsigned char> >::resize(unsigned long)
PUBLIC 52940 0 std::__ndk1::vector<unsigned char, google_breakpad::PageStdAllocator<unsigned char> >::__append(unsigned long)
PUBLIC 52adc 0 std::__ndk1::vector<unsigned char, google_breakpad::PageStdAllocator<unsigned char> >::__construct_at_end(unsigned long)
PUBLIC 52bc0 0 std::__ndk1::__split_buffer<unsigned char, google_breakpad::PageStdAllocator<unsigned char>&>::__construct_at_end(unsigned long)
PUBLIC 52c64 0 void std::__ndk1::allocator_traits<google_breakpad::PageStdAllocator<unsigned char> >::construct<unsigned char>(google_breakpad::PageStdAllocator<unsigned char>&, unsigned char*)
PUBLIC 52c98 0 void std::__ndk1::allocator_traits<google_breakpad::PageStdAllocator<unsigned char> >::__construct<unsigned char>(std::__ndk1::integral_constant<bool, true>, google_breakpad::PageStdAllocator<unsigned char>&, unsigned char*)
PUBLIC 52ccc 0 void std::__ndk1::allocator<unsigned char>::construct<unsigned char>(unsigned char*)
PUBLIC 52db0 0 CreateGUID(MDGUID*)
PUBLIC 52de0 0 GUIDGenerator::CreateGUID(MDGUID*)
PUBLIC 52eac 0 GUIDToString(MDGUID const*, char*, int)
PUBLIC 5304c 0 GUIDGenerator::BytesToUInt32(unsigned char const*)
PUBLIC 530a0 0 GUIDGenerator::CreateGUIDFromDevUrandom(MDGUID*)
PUBLIC 531b0 0 GUIDGenerator::CreateGUIDFromRand(MDGUID*)
PUBLIC 53218 0 GUIDGenerator::InitOnce()
PUBLIC 5323c 0 GUIDGenerator::InitOnceImpl()
PUBLIC 53284 0 my_strlen
PUBLIC 532e0 0 my_strcmp
PUBLIC 53388 0 my_strncmp
PUBLIC 53460 0 my_strtoui
PUBLIC 5358c 0 my_uint_len
PUBLIC 535ec 0 my_uitos
PUBLIC 53674 0 my_strchr
PUBLIC 5372c 0 my_strrchr
PUBLIC 537ac 0 my_memchr
PUBLIC 53844 0 my_read_hex_ptr
PUBLIC 539d0 0 my_read_decimal_ptr
PUBLIC 53a7c 0 my_memset
PUBLIC 53ad0 0 my_strlcpy
PUBLIC 53b98 0 my_strlcat
PUBLIC 53c7c 0 my_isspace
PUBLIC 53d4c 0 google_breakpad::MemoryMappedFile::MemoryMappedFile()
PUBLIC 53d70 0 google_breakpad::MemoryRange::MemoryRange()
PUBLIC 53d94 0 google_breakpad::MemoryMappedFile::MemoryMappedFile(char const*, unsigned long)
PUBLIC 53ddc 0 google_breakpad::MemoryMappedFile::Map(char const*, unsigned long)
PUBLIC 53f78 0 google_breakpad::MemoryMappedFile::~MemoryMappedFile()
PUBLIC 53fa4 0 google_breakpad::MemoryMappedFile::Unmap()
PUBLIC 54270 0 google_breakpad::MemoryRange::Set(void const*, unsigned long)
PUBLIC 54424 0 google_breakpad::SafeReadLink(char const*, char*, unsigned long)
PUBLIC 545d8 0 coffeecatch_backtrace_signal
PUBLIC 547b0 0 coffeecatch_backtrace_symbols
PUBLIC 54980 0 coffeecatch_unwind_signal
PUBLIC 54b30 0 getProcessNameById
PUBLIC 54df8 0 getThreadNameById
PUBLIC 54fa4 0 getCrashSingalCodeDes
PUBLIC 55548 0 getCrashSingalDes
PUBLIC 562a8 0 getCrashKeyInfo
PUBLIC 568d8 0 format_pc_address
PUBLIC 56950 0 GetCrashStack
PUBLIC 56afc 0 getCrashFrames
PUBLIC 56dd4 0 coffeecatch_get_message_new
PUBLIC 57550 0 coffeecatch_get_pc_from_ucontext
PUBLIC 57570 0 coffeecatch_is_dll
PUBLIC 57678 0 format_pc_address_cb
PUBLIC 57804 0 print_fun
PUBLIC 57a3c 0 google_breakpad::CrashGenerationClient::TryCreate(int)
PUBLIC 57b24 0 google_breakpad::CrashGenerationClient::CrashGenerationClient()
PUBLIC 57e38 0 google_breakpad::CrashGenerationClient::~CrashGenerationClient()
PUBLIC 57e48 0 google_breakpad::CrashGenerationClient::~CrashGenerationClient()
PUBLIC 580ec 0 google_breakpad::ThreadInfo::GetInstructionPointer() const
PUBLIC 5810c 0 google_breakpad::ThreadInfo::FillCPUContext(MDRawContextARM64_Old*) const
PUBLIC 5824c 0 google_breakpad::ThreadInfo::GetGeneralPurposeRegisters(void**, unsigned long*)
PUBLIC 58334 0 google_breakpad::ThreadInfo::GetFloatingPointRegisters(void**, unsigned long*)
PUBLIC 5841c 0 google_breakpad::UContextReader::GetStackPointer(ucontext const*)
PUBLIC 5843c 0 google_breakpad::UContextReader::GetInstructionPointer(ucontext const*)
PUBLIC 5845c 0 google_breakpad::UContextReader::FillCPUContext(MDRawContextARM64_Old*, ucontext const*, fpsimd_context const*)
PUBLIC 585a4 0 ConvertUTF32toUTF16
PUBLIC 587f0 0 ConvertUTF16toUTF32
PUBLIC 58a40 0 ConvertUTF16toUTF8
PUBLIC 58f04 0 isLegalUTF8Sequence
PUBLIC 592c4 0 ConvertUTF8toUTF16
PUBLIC 59820 0 ConvertUTF32toUTF8
PUBLIC 59bd0 0 ConvertUTF8toUTF32
PUBLIC 5a024 0 std::__throw_bad_alloc()
PUBLIC 5a058 0 operator new(unsigned long)
PUBLIC 5a0bc 0 operator new(unsigned long, std::nothrow_t const&)
PUBLIC 5a0e8 0 operator new[](unsigned long)
PUBLIC 5a0ec 0 operator new[](unsigned long, std::nothrow_t const&)
PUBLIC 5a118 0 operator delete(void*)
PUBLIC 5a11c 0 operator delete(void*, std::nothrow_t const&)
PUBLIC 5a120 0 operator delete(void*, unsigned long)
PUBLIC 5a124 0 operator delete[](void*)
PUBLIC 5a128 0 operator delete[](void*, std::nothrow_t const&)
PUBLIC 5a12c 0 operator delete[](void*, unsigned long)
PUBLIC 5a130 0 operator new(unsigned long, std::align_val_t)
PUBLIC 5a1dc 0 operator new(unsigned long, std::align_val_t, std::nothrow_t const&)
PUBLIC 5a208 0 operator new[](unsigned long, std::align_val_t)
PUBLIC 5a20c 0 operator new[](unsigned long, std::align_val_t, std::nothrow_t const&)
PUBLIC 5a238 0 operator delete(void*, std::align_val_t)
PUBLIC 5a23c 0 operator delete(void*, std::align_val_t, std::nothrow_t const&)
PUBLIC 5a240 0 operator delete(void*, unsigned long, std::align_val_t)
PUBLIC 5a248 0 operator delete[](void*, std::align_val_t)
PUBLIC 5a24c 0 operator delete[](void*, std::align_val_t, std::nothrow_t const&)
PUBLIC 5a250 0 operator delete[](void*, unsigned long, std::align_val_t)
PUBLIC 5a258 0 std::logic_error::logic_error(std::__ndk1::basic_string<char, std::__ndk1::char_traits<char>, std::__ndk1::allocator<char> > const&)
PUBLIC 5a2e4 0 std::logic_error::logic_error(char const*)
PUBLIC 5a364 0 std::logic_error::logic_error(std::logic_error const&)
PUBLIC 5a394 0 std::logic_error::operator=(std::logic_error const&)
PUBLIC 5a3f4 0 std::runtime_error::runtime_error(std::__ndk1::basic_string<char, std::__ndk1::char_traits<char>, std::__ndk1::allocator<char> > const&)
PUBLIC 5a480 0 std::runtime_error::runtime_error(char const*)
PUBLIC 5a500 0 std::runtime_error::runtime_error(std::runtime_error const&)
PUBLIC 5a530 0 std::runtime_error::operator=(std::runtime_error const&)
PUBLIC 5a590 0 __cxxabiv1::__setExceptionClass(_Unwind_Exception*, unsigned long)
PUBLIC 5a598 0 __cxxabiv1::__getExceptionClass(_Unwind_Exception const*)
PUBLIC 5a5a0 0 __cxxabiv1::__isOurExceptionClass(_Unwind_Exception const*)
PUBLIC 5a5c0 0 __cxa_allocate_exception
PUBLIC 5a60c 0 __cxa_free_exception
PUBLIC 5a628 0 __cxa_allocate_dependent_exception
PUBLIC 5a65c 0 __cxa_free_dependent_exception
PUBLIC 5a660 0 __cxa_throw
PUBLIC 5a75c 0 __cxa_get_exception_ptr
PUBLIC 5a764 0 __cxa_begin_catch
PUBLIC 5a7f8 0 __cxa_end_catch
PUBLIC 5a8d4 0 __cxa_decrement_exception_refcount
PUBLIC 5a924 0 __cxa_current_exception_type
PUBLIC 5a97c 0 __cxa_rethrow
PUBLIC 5aa60 0 __cxa_increment_exception_refcount
PUBLIC 5aa7c 0 __cxa_current_primary_exception
PUBLIC 5aafc 0 __cxa_rethrow_primary_exception
PUBLIC 5ac94 0 __cxa_uncaught_exception
PUBLIC 5acbc 0 __cxa_uncaught_exceptions
PUBLIC 5acdc 0 __cxa_get_globals
PUBLIC 5ad6c 0 __cxa_get_globals_fast
PUBLIC 5ae10 0 __cxa_guard_acquire
PUBLIC 5aecc 0 __cxa_guard_release
PUBLIC 5af44 0 __cxa_guard_abort
PUBLIC 5afb8 0 std::get_unexpected()
PUBLIC 5afc8 0 std::terminate()
PUBLIC 5b020 0 std::unexpected()
PUBLIC 5b038 0 std::get_terminate()
PUBLIC 5b088 0 std::set_new_handler(void (*)())
PUBLIC 5b0a4 0 std::get_new_handler()
PUBLIC 5b0b4 0 __gxx_personality_v0
PUBLIC 5b8b0 0 __cxa_call_unexpected
PUBLIC 5bd78 0 __cxa_pure_virtual
PUBLIC 5bd8c 0 __cxa_deleted_virtual
PUBLIC 5cc58 0 __dynamic_cast
PUBLIC 5d8dc 0 std::bad_array_new_length::~bad_array_new_length()
PUBLIC 5d8e0 0 std::exception::~exception()
PUBLIC 5d8e4 0 std::exception::what() const
PUBLIC 5d8f0 0 std::bad_exception::~bad_exception()
PUBLIC 5d8f4 0 std::bad_exception::what() const
PUBLIC 5d900 0 std::bad_alloc::bad_alloc()
PUBLIC 5d914 0 std::bad_alloc::~bad_alloc()
PUBLIC 5d918 0 std::bad_alloc::what() const
PUBLIC 5d924 0 std::bad_array_new_length::bad_array_new_length()
PUBLIC 5d938 0 std::bad_array_new_length::~bad_array_new_length()
PUBLIC 5d93c 0 std::bad_array_new_length::what() const
PUBLIC 5d948 0 std::domain_error::~domain_error()
PUBLIC 5d99c 0 std::logic_error::~logic_error()
PUBLIC 5d9f8 0 std::logic_error::what() const
PUBLIC 5da00 0 std::range_error::~range_error()
PUBLIC 5da54 0 std::runtime_error::~runtime_error()
PUBLIC 5dab0 0 std::runtime_error::what() const
PUBLIC 5dab8 0 std::domain_error::~domain_error()
PUBLIC 5db14 0 std::invalid_argument::~invalid_argument()
PUBLIC 5db70 0 std::length_error::~length_error()
PUBLIC 5dbcc 0 std::out_of_range::~out_of_range()
PUBLIC 5dc28 0 std::range_error::~range_error()
PUBLIC 5dc84 0 std::overflow_error::~overflow_error()
PUBLIC 5dce0 0 std::underflow_error::~underflow_error()
PUBLIC 5dd3c 0 std::type_info::~type_info()
PUBLIC 5dd40 0 std::type_info::~type_info()
PUBLIC 5dd44 0 std::bad_cast::bad_cast()
PUBLIC 5dd58 0 std::bad_cast::~bad_cast()
PUBLIC 5dd5c 0 std::bad_cast::~bad_cast()
PUBLIC 5dd80 0 std::bad_cast::what() const
PUBLIC 5dd8c 0 std::bad_typeid::bad_typeid()
PUBLIC 5dda0 0 std::bad_typeid::~bad_typeid()
PUBLIC 5dda4 0 std::bad_typeid::~bad_typeid()
PUBLIC 5ddc8 0 std::bad_typeid::what() const
PUBLIC 5dec4 0 std::set_unexpected(void (*)())
PUBLIC 5deec 0 std::set_terminate(void (*)())
PUBLIC 5e050 0 __cxa_demangle
PUBLIC 71654 0 _Unwind_GetGR
PUBLIC 717b8 0 _Unwind_GetCFA
PUBLIC 717c0 0 _Unwind_SetGR
PUBLIC 71818 0 _Unwind_GetIP
PUBLIC 71820 0 _Unwind_GetIPInfo
PUBLIC 71834 0 _Unwind_SetIP
PUBLIC 7183c 0 _Unwind_GetLanguageSpecificData
PUBLIC 71844 0 _Unwind_GetRegionStart
PUBLIC 7184c 0 _Unwind_FindEnclosingFunction
PUBLIC 71874 0 _Unwind_GetDataRelBase
PUBLIC 7187c 0 _Unwind_GetTextRelBase
PUBLIC 72cac 0 __frame_state_for
PUBLIC 72da4 0 _Unwind_RaiseException
PUBLIC 72f1c 0 _Unwind_ForcedUnwind
PUBLIC 73010 0 _Unwind_Resume
PUBLIC 7310c 0 _Unwind_Resume_or_Rethrow
PUBLIC 73204 0 _Unwind_DeleteException
PUBLIC 73228 0 _Unwind_Backtrace
PUBLIC 746b8 0 __register_frame_info_bases
PUBLIC 74754 0 __register_frame_info
PUBLIC 74760 0 __register_frame
PUBLIC 747a0 0 __register_frame_info_table_bases
PUBLIC 74834 0 __register_frame_info_table
PUBLIC 74840 0 __register_frame_table
PUBLIC 7486c 0 __deregister_frame_info_bases
PUBLIC 7496c 0 __deregister_frame_info
PUBLIC 74970 0 __deregister_frame
PUBLIC 74994 0 _Unwind_Find_FDE
STACK CFI INIT 27378 160 .cfa: sp 0 + .ra: x30
STACK CFI 27384 .cfa: x29 16 + .ra: .cfa -8 + ^ x29: .cfa -16 + ^
STACK CFI INIT 274d8 b0 .cfa: sp 0 + .ra: x30
STACK CFI 274e4 .cfa: x29 16 + .ra: .cfa -8 + ^ x29: .cfa -16 + ^
STACK CFI INIT 27588 338 .cfa: sp 0 + .ra: x30
STACK CFI 27594 .cfa: x29 16 + .ra: .cfa -8 + ^ x29: .cfa -16 + ^
STACK CFI INIT 278c0 bc .cfa: sp 0 + .ra: x30
STACK CFI 278cc .cfa: x29 16 + .ra: .cfa -8 + ^ x29: .cfa -16 + ^
STACK CFI INIT 2797c 1f4 .cfa: sp 0 + .ra: x30
STACK CFI 2798c .cfa: x29 16 + .ra: .cfa -8 + ^ x28: .cfa -32 + ^ x29: .cfa -16 + ^
STACK CFI INIT 27b70 50 .cfa: sp 0 + .ra: x30
STACK CFI 27b7c .cfa: x29 16 + .ra: .cfa -8 + ^ x29: .cfa -16 + ^
STACK CFI INIT 27bc0 5c .cfa: sp 0 + .ra: x30
STACK CFI 27bcc .cfa: x29 16 + .ra: .cfa -8 + ^ x29: .cfa -16 + ^
STACK CFI INIT 27c1c 13c .cfa: sp 0 + .ra: x30
STACK CFI 27c28 .cfa: x29 16 + .ra: .cfa -8 + ^ x29: .cfa -16 + ^
STACK CFI INIT 27d58 70 .cfa: sp 0 + .ra: x30
STACK CFI 27d64 .cfa: x29 16 + .ra: .cfa -8 + ^ x29: .cfa -16 + ^
STACK CFI INIT 27dc8 50 .cfa: sp 0 + .ra: x30
STACK CFI 27dd4 .cfa: x29 16 + .ra: .cfa -8 + ^ x29: .cfa -16 + ^
STACK CFI INIT 27e18 44 .cfa: sp 0 + .ra: x30
STACK CFI 27e24 .cfa: x29 16 + .ra: .cfa -8 + ^ x29: .cfa -16 + ^
STACK CFI INIT 27e5c 4c .cfa: sp 0 + .ra: x30
STACK CFI 27e68 .cfa: x29 16 + .ra: .cfa -8 + ^ x29: .cfa -16 + ^
STACK CFI INIT 27ea8 f8 .cfa: sp 0 + .ra: x30
STACK CFI 27eb4 .cfa: x29 16 + .ra: .cfa -8 + ^ x29: .cfa -16 + ^
STACK CFI INIT 27fa0 4c .cfa: sp 0 + .ra: x30
STACK CFI 27fac .cfa: x29 16 + .ra: .cfa -8 + ^ x29: .cfa -16 + ^
STACK CFI INIT 27fec d0 .cfa: sp 0 + .ra: x30
STACK CFI 27ff8 .cfa: x29 16 + .ra: .cfa -8 + ^ x29: .cfa -16 + ^
STACK CFI INIT 280bc 44 .cfa: sp 0 + .ra: x30
STACK CFI 280c8 .cfa: x29 16 + .ra: .cfa -8 + ^ x29: .cfa -16 + ^
STACK CFI INIT 28100 50 .cfa: sp 0 + .ra: x30
STACK CFI 2810c .cfa: x29 16 + .ra: .cfa -8 + ^ x29: .cfa -16 + ^
STACK CFI INIT 28150 50 .cfa: sp 0 + .ra: x30
STACK CFI 2815c .cfa: x29 16 + .ra: .cfa -8 + ^ x29: .cfa -16 + ^
STACK CFI INIT 281a0 44 .cfa: sp 0 + .ra: x30
STACK CFI 281ac .cfa: x29 16 + .ra: .cfa -8 + ^ x29: .cfa -16 + ^
STACK CFI INIT 281e4 5c .cfa: sp 0 + .ra: x30
STACK CFI 281f0 .cfa: x29 16 + .ra: .cfa -8 + ^ x29: .cfa -16 + ^
STACK CFI INIT 28240 44 .cfa: sp 0 + .ra: x30
STACK CFI 2824c .cfa: x29 16 + .ra: .cfa -8 + ^ x29: .cfa -16 + ^
STACK CFI INIT 28284 104 .cfa: sp 0 + .ra: x30
STACK CFI 28294 .cfa: x29 16 + .ra: .cfa -8 + ^ x28: .cfa -32 + ^ x29: .cfa -16 + ^
STACK CFI INIT 28388 44 .cfa: sp 0 + .ra: x30
STACK CFI 28394 .cfa: x29 16 + .ra: .cfa -8 + ^ x29: .cfa -16 + ^
STACK CFI INIT 283cc 30 .cfa: sp 0 + .ra: x30
STACK CFI 283d8 .cfa: x29 16 + .ra: .cfa -8 + ^ x29: .cfa -16 + ^
STACK CFI INIT 283fc 58 .cfa: sp 0 + .ra: x30
STACK CFI 28408 .cfa: x29 16 + .ra: .cfa -8 + ^ x29: .cfa -16 + ^
STACK CFI INIT 28454 24 .cfa: sp 0 + .ra: x30
STACK CFI 28458 .cfa: sp 16 +
STACK CFI INIT 28478 78 .cfa: sp 0 + .ra: x30
STACK CFI 28484 .cfa: x29 16 + .ra: .cfa -8 + ^ x29: .cfa -16 + ^
STACK CFI INIT 284f0 2c .cfa: sp 0 + .ra: x30
STACK CFI 284fc .cfa: x29 16 + .ra: .cfa -8 + ^ x29: .cfa -16 + ^
STACK CFI INIT 2851c 24 .cfa: sp 0 + .ra: x30
STACK CFI 28528 .cfa: x29 16 + .ra: .cfa -8 + ^ x29: .cfa -16 + ^
STACK CFI INIT 28540 64 .cfa: sp 0 + .ra: x30
STACK CFI 2854c .cfa: x29 16 + .ra: .cfa -8 + ^ x29: .cfa -16 + ^
STACK CFI INIT 285a4 14 .cfa: sp 0 + .ra: x30
STACK CFI 285a8 .cfa: sp 16 +
STACK CFI INIT 285b8 f4 .cfa: sp 0 + .ra: x30
STACK CFI 285c4 .cfa: x29 16 + .ra: .cfa -8 + ^ x29: .cfa -16 + ^
STACK CFI INIT 286ac 40 .cfa: sp 0 + .ra: x30
STACK CFI 286b8 .cfa: x29 16 + .ra: .cfa -8 + ^ x29: .cfa -16 + ^
STACK CFI INIT 286ec 2c .cfa: sp 0 + .ra: x30
STACK CFI 286f0 .cfa: sp 16 +
STACK CFI INIT 28718 44 .cfa: sp 0 + .ra: x30
STACK CFI 28724 .cfa: x29 16 + .ra: .cfa -8 + ^ x29: .cfa -16 + ^
STACK CFI INIT 2875c 2c .cfa: sp 0 + .ra: x30
STACK CFI 28768 .cfa: x29 16 + .ra: .cfa -8 + ^ x29: .cfa -16 + ^
STACK CFI INIT 28788 24 .cfa: sp 0 + .ra: x30
STACK CFI 28794 .cfa: x29 16 + .ra: .cfa -8 + ^ x29: .cfa -16 + ^
STACK CFI INIT 287ac 54 .cfa: sp 0 + .ra: x30
STACK CFI 287b8 .cfa: x29 16 + .ra: .cfa -8 + ^ x29: .cfa -16 + ^
STACK CFI INIT 28800 60 .cfa: sp 0 + .ra: x30
STACK CFI 2880c .cfa: x29 16 + .ra: .cfa -8 + ^ x29: .cfa -16 + ^
STACK CFI INIT 28860 24 .cfa: sp 0 + .ra: x30
STACK CFI 2886c .cfa: x29 16 + .ra: .cfa -8 + ^ x29: .cfa -16 + ^
STACK CFI INIT 28884 24 .cfa: sp 0 + .ra: x30
STACK CFI 28890 .cfa: x29 16 + .ra: .cfa -8 + ^ x29: .cfa -16 + ^
STACK CFI INIT 288a8 144 .cfa: sp 0 + .ra: x30
STACK CFI 288b4 .cfa: x29 16 + .ra: .cfa -8 + ^ x29: .cfa -16 + ^
STACK CFI INIT 289ec 14 .cfa: sp 0 + .ra: x30
STACK CFI 289f0 .cfa: sp 16 +
STACK CFI INIT 28a00 28 .cfa: sp 0 + .ra: x30
STACK CFI 28a0c .cfa: x29 16 + .ra: .cfa -8 + ^ x29: .cfa -16 + ^
STACK CFI INIT 28a28 28 .cfa: sp 0 + .ra: x30
STACK CFI 28a34 .cfa: x29 16 + .ra: .cfa -8 + ^ x29: .cfa -16 + ^
STACK CFI INIT 28a50 18 .cfa: sp 0 + .ra: x30
STACK CFI 28a54 .cfa: sp 16 +
STACK CFI INIT 28a68 24 .cfa: sp 0 + .ra: x30
STACK CFI 28a74 .cfa: x29 16 + .ra: .cfa -8 + ^ x29: .cfa -16 + ^
STACK CFI INIT 28a8c 14 .cfa: sp 0 + .ra: x30
STACK CFI 28a90 .cfa: sp 16 +
STACK CFI INIT 28aa0 2c .cfa: sp 0 + .ra: x30
STACK CFI 28aa8 .cfa: sp 32 + .ra: .cfa -16 + ^
STACK CFI INIT 28acc 14 .cfa: sp 0 + .ra: x30
STACK CFI 28ad0 .cfa: sp 16 +
STACK CFI INIT 28ae0 28 .cfa: sp 0 + .ra: x30
STACK CFI 28aec .cfa: x29 16 + .ra: .cfa -8 + ^ x29: .cfa -16 + ^
STACK CFI INIT 28b08 14 .cfa: sp 0 + .ra: x30
STACK CFI 28b0c .cfa: sp 16 +
STACK CFI INIT 28b1c 14 .cfa: sp 0 + .ra: x30
STACK CFI 28b20 .cfa: sp 16 +
STACK CFI INIT 28b30 34 .cfa: sp 0 + .ra: x30
STACK CFI 28b3c .cfa: x29 16 + .ra: .cfa -8 + ^ x29: .cfa -16 + ^
STACK CFI INIT 28b64 20 .cfa: sp 0 + .ra: x30
STACK CFI 28b70 .cfa: x29 16 + .ra: .cfa -8 + ^ x29: .cfa -16 + ^
STACK CFI INIT 28b84 44 .cfa: sp 0 + .ra: x30
STACK CFI 28b90 .cfa: x29 16 + .ra: .cfa -8 + ^ x29: .cfa -16 + ^
STACK CFI INIT 28bc8 38 .cfa: sp 0 + .ra: x30
STACK CFI 28bd4 .cfa: x29 16 + .ra: .cfa -8 + ^ x29: .cfa -16 + ^
STACK CFI INIT 28c00 8c .cfa: sp 0 + .ra: x30
STACK CFI 28c0c .cfa: x29 16 + .ra: .cfa -8 + ^ x29: .cfa -16 + ^
STACK CFI INIT 28c8c 34 .cfa: sp 0 + .ra: x30
STACK CFI 28c98 .cfa: x29 16 + .ra: .cfa -8 + ^ x29: .cfa -16 + ^
STACK CFI INIT 28cc0 24 .cfa: sp 0 + .ra: x30
STACK CFI 28ccc .cfa: x29 16 + .ra: .cfa -8 + ^ x29: .cfa -16 + ^
STACK CFI INIT 28ce4 38 .cfa: sp 0 + .ra: x30
STACK CFI 28cf0 .cfa: x29 16 + .ra: .cfa -8 + ^ x29: .cfa -16 + ^
STACK CFI INIT 28d1c 40 .cfa: sp 0 + .ra: x30
STACK CFI 28d28 .cfa: x29 16 + .ra: .cfa -8 + ^ x29: .cfa -16 + ^
STACK CFI INIT 28d5c 38 .cfa: sp 0 + .ra: x30
STACK CFI 28d68 .cfa: x29 16 + .ra: .cfa -8 + ^ x29: .cfa -16 + ^
STACK CFI INIT 28d94 60 .cfa: sp 0 + .ra: x30
STACK CFI 28d9c .cfa: sp 64 + .ra: .cfa -16 + ^
STACK CFI INIT 28df4 14 .cfa: sp 0 + .ra: x30
STACK CFI 28df8 .cfa: sp 16 +
STACK CFI INIT 28e08 24 .cfa: sp 0 + .ra: x30
STACK CFI 28e0c .cfa: sp 16 +
STACK CFI INIT 28e2c 2c .cfa: sp 0 + .ra: x30
STACK CFI 28e38 .cfa: x29 16 + .ra: .cfa -8 + ^ x29: .cfa -16 + ^
STACK CFI INIT 28e58 2c .cfa: sp 0 + .ra: x30
STACK CFI 28e64 .cfa: x29 16 + .ra: .cfa -8 + ^ x29: .cfa -16 + ^
STACK CFI INIT 28e84 18 .cfa: sp 0 + .ra: x30
STACK CFI 28e88 .cfa: sp 16 +
STACK CFI INIT 28e9c 70 .cfa: sp 0 + .ra: x30
STACK CFI 28ea8 .cfa: x29 16 + .ra: .cfa -8 + ^ x29: .cfa -16 + ^
STACK CFI INIT 28f0c 54 .cfa: sp 0 + .ra: x30
STACK CFI 28f18 .cfa: x29 16 + .ra: .cfa -8 + ^ x29: .cfa -16 + ^
STACK CFI INIT 28f60 24 .cfa: sp 0 + .ra: x30
STACK CFI 28f6c .cfa: x29 16 + .ra: .cfa -8 + ^ x29: .cfa -16 + ^
STACK CFI INIT 28f84 14 .cfa: sp 0 + .ra: x30
STACK CFI 28f88 .cfa: sp 16 +
STACK CFI INIT 28f98 20 .cfa: sp 0 + .ra: x30
STACK CFI 28f9c .cfa: sp 16 +
STACK CFI INIT 28fb8 70 .cfa: sp 0 + .ra: x30
STACK CFI 28fc4 .cfa: x29 16 + .ra: .cfa -8 + ^ x29: .cfa -16 + ^
STACK CFI INIT 29028 28 .cfa: sp 0 + .ra: x30
STACK CFI 29034 .cfa: x29 16 + .ra: .cfa -8 + ^ x29: .cfa -16 + ^
STACK CFI INIT 29050 24 .cfa: sp 0 + .ra: x30
STACK CFI 2905c .cfa: x29 16 + .ra: .cfa -8 + ^ x29: .cfa -16 + ^
STACK CFI INIT 29074 14 .cfa: sp 0 + .ra: x30
STACK CFI 29078 .cfa: sp 16 +
STACK CFI INIT 29088 30 .cfa: sp 0 + .ra: x30
STACK CFI 29094 .cfa: x29 16 + .ra: .cfa -8 + ^ x29: .cfa -16 + ^
STACK CFI INIT 290b8 c .cfa: sp 0 + .ra: x30
STACK CFI 290bc .cfa: sp 16 + .ra: .cfa -16 + ^
STACK CFI INIT 290c4 74 .cfa: sp 0 + .ra: x30
STACK CFI 290d0 .cfa: x29 16 + .ra: .cfa -8 + ^ x29: .cfa -16 + ^
STACK CFI INIT 29138 24 .cfa: sp 0 + .ra: x30
STACK CFI 29144 .cfa: x29 16 + .ra: .cfa -8 + ^ x29: .cfa -16 + ^
STACK CFI INIT 2915c 10 .cfa: sp 0 + .ra: x30
STACK CFI 29160 .cfa: sp 16 +
STACK CFI INIT 2916c 54 .cfa: sp 0 + .ra: x30
STACK CFI 29178 .cfa: x29 16 + .ra: .cfa -8 + ^ x29: .cfa -16 + ^
STACK CFI INIT 291c0 40 .cfa: sp 0 + .ra: x30
STACK CFI 291cc .cfa: x29 16 + .ra: .cfa -8 + ^ x29: .cfa -16 + ^
STACK CFI INIT 29200 34 .cfa: sp 0 + .ra: x30
STACK CFI 2920c .cfa: x29 16 + .ra: .cfa -8 + ^ x29: .cfa -16 + ^
STACK CFI INIT 29234 28 .cfa: sp 0 + .ra: x30
STACK CFI 29240 .cfa: x29 16 + .ra: .cfa -8 + ^ x29: .cfa -16 + ^
STACK CFI INIT 2925c 38 .cfa: sp 0 + .ra: x30
STACK CFI 29268 .cfa: x29 16 + .ra: .cfa -8 + ^ x29: .cfa -16 + ^
STACK CFI INIT 29294 44 .cfa: sp 0 + .ra: x30
STACK CFI 292a0 .cfa: x29 16 + .ra: .cfa -8 + ^ x29: .cfa -16 + ^
STACK CFI INIT 292d8 34 .cfa: sp 0 + .ra: x30
STACK CFI 292e4 .cfa: x29 16 + .ra: .cfa -8 + ^ x29: .cfa -16 + ^
STACK CFI INIT 2930c 30 .cfa: sp 0 + .ra: x30
STACK CFI 29318 .cfa: x29 16 + .ra: .cfa -8 + ^ x29: .cfa -16 + ^
STACK CFI INIT 2933c 28 .cfa: sp 0 + .ra: x30
STACK CFI 29348 .cfa: x29 16 + .ra: .cfa -8 + ^ x29: .cfa -16 + ^
STACK CFI INIT 29364 24 .cfa: sp 0 + .ra: x30
STACK CFI 29370 .cfa: x29 16 + .ra: .cfa -8 + ^ x29: .cfa -16 + ^
STACK CFI INIT 29388 24 .cfa: sp 0 + .ra: x30
STACK CFI 29394 .cfa: x29 16 + .ra: .cfa -8 + ^ x29: .cfa -16 + ^
STACK CFI INIT 293ac 2f4 .cfa: sp 0 + .ra: x30
STACK CFI 293b8 .cfa: x29 16 + .ra: .cfa -8 + ^ x29: .cfa -16 + ^
STACK CFI INIT 296a0 20 .cfa: sp 0 + .ra: x30
STACK CFI 296a4 .cfa: sp 16 +
STACK CFI INIT 296c0 24 .cfa: sp 0 + .ra: x30
STACK CFI 296cc .cfa: x29 16 + .ra: .cfa -8 + ^ x29: .cfa -16 + ^
STACK CFI INIT 296e4 24 .cfa: sp 0 + .ra: x30
STACK CFI 296f0 .cfa: x29 16 + .ra: .cfa -8 + ^ x29: .cfa -16 + ^
STACK CFI INIT 29708 88 .cfa: sp 0 + .ra: x30
STACK CFI 29714 .cfa: x29 16 + .ra: .cfa -8 + ^ x29: .cfa -16 + ^
STACK CFI INIT 29790 4c .cfa: sp 0 + .ra: x30
STACK CFI 2979c .cfa: x29 16 + .ra: .cfa -8 + ^ x29: .cfa -16 + ^
STACK CFI INIT 297dc 30 .cfa: sp 0 + .ra: x30
STACK CFI 297e0 .cfa: sp 16 +
STACK CFI INIT 2980c 30 .cfa: sp 0 + .ra: x30
STACK CFI 29810 .cfa: sp 16 +
STACK CFI INIT 2983c 24 .cfa: sp 0 + .ra: x30
STACK CFI 29848 .cfa: x29 16 + .ra: .cfa -8 + ^ x29: .cfa -16 + ^
STACK CFI INIT 29860 1d8 .cfa: sp 0 + .ra: x30
STACK CFI 2986c .cfa: x29 16 + .ra: .cfa -8 + ^ x29: .cfa -16 + ^
STACK CFI INIT 29a38 1ec .cfa: sp 0 + .ra: x30
STACK CFI 29a44 .cfa: x29 16 + .ra: .cfa -8 + ^ x29: .cfa -16 + ^
STACK CFI INIT 29c24 11c .cfa: sp 0 + .ra: x30
STACK CFI 29c30 .cfa: x29 16 + .ra: .cfa -8 + ^ x29: .cfa -16 + ^
STACK CFI INIT 29d40 24 .cfa: sp 0 + .ra: x30
STACK CFI 29d4c .cfa: x29 16 + .ra: .cfa -8 + ^ x29: .cfa -16 + ^
STACK CFI INIT 29d64 24 .cfa: sp 0 + .ra: x30
STACK CFI 29d70 .cfa: x29 16 + .ra: .cfa -8 + ^ x29: .cfa -16 + ^
STACK CFI INIT 29d88 4c .cfa: sp 0 + .ra: x30
STACK CFI 29d94 .cfa: x29 16 + .ra: .cfa -8 + ^ x29: .cfa -16 + ^
STACK CFI INIT 29dd4 1d8 .cfa: sp 0 + .ra: x30
STACK CFI 29de0 .cfa: x29 16 + .ra: .cfa -8 + ^ x29: .cfa -16 + ^
STACK CFI INIT 29fac b8 .cfa: sp 0 + .ra: x30
STACK CFI 29fb8 .cfa: x29 16 + .ra: .cfa -8 + ^ x29: .cfa -16 + ^
STACK CFI INIT 2a064 40 .cfa: sp 0 + .ra: x30
STACK CFI 2a070 .cfa: x29 16 + .ra: .cfa -8 + ^ x29: .cfa -16 + ^
STACK CFI INIT 2a0a4 3c .cfa: sp 0 + .ra: x30
STACK CFI 2a0b0 .cfa: x29 16 + .ra: .cfa -8 + ^ x29: .cfa -16 + ^
STACK CFI INIT 2a0e0 dc .cfa: sp 0 + .ra: x30
STACK CFI 2a0ec .cfa: x29 16 + .ra: .cfa -8 + ^ x29: .cfa -16 + ^
STACK CFI INIT 2a1bc 40 .cfa: sp 0 + .ra: x30
STACK CFI 2a1c8 .cfa: x29 16 + .ra: .cfa -8 + ^ x29: .cfa -16 + ^
STACK CFI INIT 2a1fc 34 .cfa: sp 0 + .ra: x30
STACK CFI 2a200 .cfa: sp 16 +
STACK CFI INIT 2a230 50 .cfa: sp 0 + .ra: x30
STACK CFI 2a23c .cfa: x29 16 + .ra: .cfa -8 + ^ x29: .cfa -16 + ^
STACK CFI INIT 2a280 118 .cfa: sp 0 + .ra: x30
STACK CFI 2a28c .cfa: x29 16 + .ra: .cfa -8 + ^ x29: .cfa -16 + ^
STACK CFI INIT 2a398 118 .cfa: sp 0 + .ra: x30
STACK CFI 2a3a4 .cfa: x29 16 + .ra: .cfa -8 + ^ x29: .cfa -16 + ^
STACK CFI INIT 2a4b0 2d0 .cfa: sp 0 + .ra: x30
STACK CFI 2a4bc .cfa: x29 16 + .ra: .cfa -8 + ^ x29: .cfa -16 + ^
STACK CFI INIT 2a780 a0 .cfa: sp 0 + .ra: x30
STACK CFI 2a78c .cfa: x29 16 + .ra: .cfa -8 + ^ x29: .cfa -16 + ^
STACK CFI INIT 2a820 28 .cfa: sp 0 + .ra: x30
STACK CFI 2a824 .cfa: sp 16 +
STACK CFI INIT 2a848 30 .cfa: sp 0 + .ra: x30
STACK CFI 2a84c .cfa: sp 16 +
STACK CFI INIT 2a878 2a0 .cfa: sp 0 + .ra: x30
STACK CFI 2a884 .cfa: x29 16 + .ra: .cfa -8 + ^ x29: .cfa -16 + ^
STACK CFI INIT 2ab18 a8 .cfa: sp 0 + .ra: x30
STACK CFI 2ab24 .cfa: x29 16 + .ra: .cfa -8 + ^ x29: .cfa -16 + ^
STACK CFI INIT 2abc0 fc .cfa: sp 0 + .ra: x30
STACK CFI 2abcc .cfa: x29 16 + .ra: .cfa -8 + ^ x29: .cfa -16 + ^
STACK CFI INIT 2acbc 88 .cfa: sp 0 + .ra: x30
STACK CFI 2acc8 .cfa: x29 16 + .ra: .cfa -8 + ^ x29: .cfa -16 + ^
STACK CFI INIT 2ad44 154 .cfa: sp 0 + .ra: x30
STACK CFI 2ad50 .cfa: x29 16 + .ra: .cfa -8 + ^ x29: .cfa -16 + ^
STACK CFI INIT 2ae98 288 .cfa: sp 0 + .ra: x30
STACK CFI 2aea4 .cfa: x29 16 + .ra: .cfa -8 + ^ x29: .cfa -16 + ^
STACK CFI INIT 2b120 c8 .cfa: sp 0 + .ra: x30
STACK CFI 2b12c .cfa: x29 16 + .ra: .cfa -8 + ^ x29: .cfa -16 + ^
STACK CFI INIT 2b1e8 5f8 .cfa: sp 0 + .ra: x30
STACK CFI 2b1fc .cfa: x29 16 + .ra: .cfa -8 + ^ x28: .cfa -32 + ^ x29: .cfa -16 + ^
STACK CFI INIT 2b7e0 e0 .cfa: sp 0 + .ra: x30
STACK CFI 2b7f4 .cfa: x29 16 + .ra: .cfa -8 + ^ x28: .cfa -32 + ^ x29: .cfa -16 + ^
STACK CFI INIT 2b8c0 84 .cfa: sp 0 + .ra: x30
STACK CFI 2b8cc .cfa: x29 16 + .ra: .cfa -8 + ^ x29: .cfa -16 + ^
STACK CFI INIT 2b944 60 .cfa: sp 0 + .ra: x30
STACK CFI 2b950 .cfa: x29 16 + .ra: .cfa -8 + ^ x29: .cfa -16 + ^
STACK CFI INIT 2b9a4 1d4 .cfa: sp 0 + .ra: x30
STACK CFI 2b9b0 .cfa: x29 16 + .ra: .cfa -8 + ^ x29: .cfa -16 + ^
STACK CFI INIT 2bb78 28 .cfa: sp 0 + .ra: x30
STACK CFI 2bb84 .cfa: x29 16 + .ra: .cfa -8 + ^ x29: .cfa -16 + ^
STACK CFI INIT 2bba0 108 .cfa: sp 0 + .ra: x30
STACK CFI 2bbac .cfa: x29 16 + .ra: .cfa -8 + ^ x29: .cfa -16 + ^
STACK CFI INIT 2bca8 134 .cfa: sp 0 + .ra: x30
STACK CFI 2bcb4 .cfa: x29 16 + .ra: .cfa -8 + ^ x29: .cfa -16 + ^
STACK CFI INIT 2bddc 3c .cfa: sp 0 + .ra: x30
STACK CFI 2bde8 .cfa: x29 16 + .ra: .cfa -8 + ^ x29: .cfa -16 + ^
STACK CFI INIT 2be18 2c .cfa: sp 0 + .ra: x30
STACK CFI 2be24 .cfa: x29 16 + .ra: .cfa -8 + ^ x29: .cfa -16 + ^
STACK CFI INIT 2be44 a8 .cfa: sp 0 + .ra: x30
STACK CFI 2be50 .cfa: x29 16 + .ra: .cfa -8 + ^ x29: .cfa -16 + ^
STACK CFI INIT 2beec a8 .cfa: sp 0 + .ra: x30
STACK CFI 2bef8 .cfa: x29 16 + .ra: .cfa -8 + ^ x29: .cfa -16 + ^
STACK CFI INIT 2bf94 24 .cfa: sp 0 + .ra: x30
STACK CFI 2bf98 .cfa: sp 16 +
STACK CFI INIT 2bfb8 18 .cfa: sp 0 + .ra: x30
STACK CFI 2bfbc .cfa: sp 16 +
STACK CFI INIT 2bfd0 24 .cfa: sp 0 + .ra: x30
STACK CFI 2bfd4 .cfa: sp 16 +
STACK CFI INIT 2bff4 78 .cfa: sp 0 + .ra: x30
STACK CFI 2c000 .cfa: x29 16 + .ra: .cfa -8 + ^ x29: .cfa -16 + ^
STACK CFI INIT 2c06c 18 .cfa: sp 0 + .ra: x30
STACK CFI 2c070 .cfa: sp 16 +
STACK CFI INIT 2c084 18 .cfa: sp 0 + .ra: x30
STACK CFI 2c088 .cfa: sp 16 +
STACK CFI INIT 2c09c 18 .cfa: sp 0 + .ra: x30
STACK CFI 2c0a0 .cfa: sp 16 +
STACK CFI INIT 2c0b4 10c .cfa: sp 0 + .ra: x30
STACK CFI 2c0c4 .cfa: x29 16 + .ra: .cfa -8 + ^ x28: .cfa -32 + ^ x29: .cfa -16 + ^
STACK CFI INIT 2c1c0 1e0 .cfa: sp 0 + .ra: x30
STACK CFI 2c1d4 .cfa: x29 16 + .ra: .cfa -8 + ^ x28: .cfa -32 + ^ x29: .cfa -16 + ^
STACK CFI INIT 2c3a0 10 .cfa: sp 0 + .ra: x30
STACK CFI 2c3a4 .cfa: sp 16 +
STACK CFI INIT 2c3b0 58 .cfa: sp 0 + .ra: x30
STACK CFI 2c3bc .cfa: x29 16 + .ra: .cfa -8 + ^ x29: .cfa -16 + ^
STACK CFI INIT 2c408 114 .cfa: sp 0 + .ra: x30
STACK CFI 2c418 .cfa: x29 16 + .ra: .cfa -8 + ^ x28: .cfa -32 + ^ x29: .cfa -16 + ^
STACK CFI INIT 2c51c 24 .cfa: sp 0 + .ra: x30
STACK CFI 2c528 .cfa: x29 16 + .ra: .cfa -8 + ^ x29: .cfa -16 + ^
STACK CFI INIT 2c540 140 .cfa: sp 0 + .ra: x30
STACK CFI 2c54c .cfa: x29 16 + .ra: .cfa -8 + ^ x29: .cfa -16 + ^
STACK CFI INIT 2c680 d8 .cfa: sp 0 + .ra: x30
STACK CFI 2c68c .cfa: x29 16 + .ra: .cfa -8 + ^ x29: .cfa -16 + ^
STACK CFI INIT 2c758 b0 .cfa: sp 0 + .ra: x30
STACK CFI 2c764 .cfa: x29 16 + .ra: .cfa -8 + ^ x29: .cfa -16 + ^
STACK CFI INIT 2c808 38 .cfa: sp 0 + .ra: x30
STACK CFI 2c814 .cfa: x29 16 + .ra: .cfa -8 + ^ x29: .cfa -16 + ^
STACK CFI INIT 2c840 38 .cfa: sp 0 + .ra: x30
STACK CFI 2c84c .cfa: x29 16 + .ra: .cfa -8 + ^ x29: .cfa -16 + ^
STACK CFI INIT 2c878 48 .cfa: sp 0 + .ra: x30
STACK CFI 2c884 .cfa: x29 16 + .ra: .cfa -8 + ^ x29: .cfa -16 + ^
STACK CFI INIT 2c8c0 140 .cfa: sp 0 + .ra: x30
STACK CFI 2c8cc .cfa: x29 16 + .ra: .cfa -8 + ^ x29: .cfa -16 + ^
STACK CFI INIT 2ca00 dc .cfa: sp 0 + .ra: x30
STACK CFI 2ca0c .cfa: x29 16 + .ra: .cfa -8 + ^ x29: .cfa -16 + ^
STACK CFI INIT 2cadc 100 .cfa: sp 0 + .ra: x30
STACK CFI 2cae8 .cfa: x29 16 + .ra: .cfa -8 + ^ x29: .cfa -16 + ^
STACK CFI INIT 2cbdc 24 .cfa: sp 0 + .ra: x30
STACK CFI 2cbe0 .cfa: sp 16 +
STACK CFI INIT 2cc00 158 .cfa: sp 0 + .ra: x30
STACK CFI 2cc0c .cfa: x29 16 + .ra: .cfa -8 + ^ x29: .cfa -16 + ^
STACK CFI INIT 2cd58 20 .cfa: sp 0 + .ra: x30
STACK CFI 2cd5c .cfa: sp 16 +
STACK CFI INIT 2cd78 18 .cfa: sp 0 + .ra: x30
STACK CFI 2cd7c .cfa: sp 16 +
STACK CFI INIT 2cd90 34 .cfa: sp 0 + .ra: x30
STACK CFI 2cd9c .cfa: x29 16 + .ra: .cfa -8 + ^ x29: .cfa -16 + ^
STACK CFI INIT 2cdc4 98 .cfa: sp 0 + .ra: x30
STACK CFI 2cdd0 .cfa: x29 16 + .ra: .cfa -8 + ^ x29: .cfa -16 + ^
STACK CFI INIT 2ce5c 8c .cfa: sp 0 + .ra: x30
STACK CFI 2ce68 .cfa: x29 16 + .ra: .cfa -8 + ^ x29: .cfa -16 + ^
STACK CFI INIT 2cee8 3c .cfa: sp 0 + .ra: x30
STACK CFI 2ceec .cfa: sp 32 +
STACK CFI INIT 2cf24 24 .cfa: sp 0 + .ra: x30
STACK CFI 2cf30 .cfa: x29 16 + .ra: .cfa -8 + ^ x29: .cfa -16 + ^
STACK CFI INIT 2cf48 100 .cfa: sp 0 + .ra: x30
STACK CFI 2cf54 .cfa: x29 16 + .ra: .cfa -8 + ^ x29: .cfa -16 + ^
STACK CFI INIT 2d048 48 .cfa: sp 0 + .ra: x30
STACK CFI 2d054 .cfa: x29 16 + .ra: .cfa -8 + ^ x29: .cfa -16 + ^
STACK CFI INIT 2d090 2c .cfa: sp 0 + .ra: x30
STACK CFI 2d09c .cfa: x29 16 + .ra: .cfa -8 + ^ x29: .cfa -16 + ^
STACK CFI INIT 2d0bc 44 .cfa: sp 0 + .ra: x30
STACK CFI 2d0c8 .cfa: x29 16 + .ra: .cfa -8 + ^ x29: .cfa -16 + ^
STACK CFI INIT 2d100 3c .cfa: sp 0 + .ra: x30
STACK CFI 2d104 .cfa: sp 16 +
STACK CFI INIT 2d13c 2c .cfa: sp 0 + .ra: x30
STACK CFI 2d148 .cfa: x29 16 + .ra: .cfa -8 + ^ x29: .cfa -16 + ^
STACK CFI INIT 2d168 24 .cfa: sp 0 + .ra: x30
STACK CFI 2d174 .cfa: x29 16 + .ra: .cfa -8 + ^ x29: .cfa -16 + ^
STACK CFI INIT 2d18c 34 .cfa: sp 0 + .ra: x30
STACK CFI 2d198 .cfa: x29 16 + .ra: .cfa -8 + ^ x29: .cfa -16 + ^
STACK CFI INIT 2d1c0 14 .cfa: sp 0 + .ra: x30
STACK CFI 2d1c4 .cfa: sp 16 +
STACK CFI INIT 2d1d4 34 .cfa: sp 0 + .ra: x30
STACK CFI 2d1e0 .cfa: x29 16 + .ra: .cfa -8 + ^ x29: .cfa -16 + ^
STACK CFI INIT 2d208 10 .cfa: sp 0 + .ra: x30
STACK CFI 2d20c .cfa: sp 16 +
STACK CFI INIT 2d218 2c .cfa: sp 0 + .ra: x30
STACK CFI 2d224 .cfa: x29 16 + .ra: .cfa -8 + ^ x29: .cfa -16 + ^
STACK CFI INIT 2d244 24 .cfa: sp 0 + .ra: x30
STACK CFI 2d250 .cfa: x29 16 + .ra: .cfa -8 + ^ x29: .cfa -16 + ^
STACK CFI INIT 2d268 14 .cfa: sp 0 + .ra: x30
STACK CFI 2d26c .cfa: sp 16 +
STACK CFI INIT 2d27c 24 .cfa: sp 0 + .ra: x30
STACK CFI 2d288 .cfa: x29 16 + .ra: .cfa -8 + ^ x29: .cfa -16 + ^
STACK CFI INIT 2d2a0 14 .cfa: sp 0 + .ra: x30
STACK CFI 2d2a4 .cfa: sp 16 +
STACK CFI INIT 2d2b4 14 .cfa: sp 0 + .ra: x30
STACK CFI 2d2b8 .cfa: sp 16 +
STACK CFI INIT 2d2c8 24 .cfa: sp 0 + .ra: x30
STACK CFI 2d2d4 .cfa: x29 16 + .ra: .cfa -8 + ^ x29: .cfa -16 + ^
STACK CFI INIT 2d2ec 24 .cfa: sp 0 + .ra: x30
STACK CFI 2d2f8 .cfa: x29 16 + .ra: .cfa -8 + ^ x29: .cfa -16 + ^
STACK CFI INIT 2d310 14 .cfa: sp 0 + .ra: x30
STACK CFI 2d314 .cfa: sp 16 +
STACK CFI INIT 2d324 24 .cfa: sp 0 + .ra: x30
STACK CFI 2d330 .cfa: x29 16 + .ra: .cfa -8 + ^ x29: .cfa -16 + ^
STACK CFI INIT 2d348 14 .cfa: sp 0 + .ra: x30
STACK CFI 2d34c .cfa: sp 16 +
STACK CFI INIT 2d35c 1c .cfa: sp 0 + .ra: x30
STACK CFI 2d360 .cfa: sp 32 +
STACK CFI INIT 2d378 48 .cfa: sp 0 + .ra: x30
STACK CFI 2d384 .cfa: x29 16 + .ra: .cfa -8 + ^ x29: .cfa -16 + ^
STACK CFI INIT 2d3c0 24 .cfa: sp 0 + .ra: x30
STACK CFI 2d3cc .cfa: x29 16 + .ra: .cfa -8 + ^ x29: .cfa -16 + ^
STACK CFI INIT 2d3e4 100 .cfa: sp 0 + .ra: x30
STACK CFI 2d3f0 .cfa: x29 16 + .ra: .cfa -8 + ^ x29: .cfa -16 + ^
STACK CFI INIT 2d4e4 48 .cfa: sp 0 + .ra: x30
STACK CFI 2d4f0 .cfa: x29 16 + .ra: .cfa -8 + ^ x29: .cfa -16 + ^
STACK CFI INIT 2d52c 2c .cfa: sp 0 + .ra: x30
STACK CFI 2d538 .cfa: x29 16 + .ra: .cfa -8 + ^ x29: .cfa -16 + ^
STACK CFI INIT 2d558 44 .cfa: sp 0 + .ra: x30
STACK CFI 2d564 .cfa: x29 16 + .ra: .cfa -8 + ^ x29: .cfa -16 + ^
STACK CFI INIT 2d59c 3c .cfa: sp 0 + .ra: x30
STACK CFI 2d5a0 .cfa: sp 16 +
STACK CFI INIT 2d5d8 2c .cfa: sp 0 + .ra: x30
STACK CFI 2d5e4 .cfa: x29 16 + .ra: .cfa -8 + ^ x29: .cfa -16 + ^
STACK CFI INIT 2d604 24 .cfa: sp 0 + .ra: x30
STACK CFI 2d610 .cfa: x29 16 + .ra: .cfa -8 + ^ x29: .cfa -16 + ^
STACK CFI INIT 2d628 34 .cfa: sp 0 + .ra: x30
STACK CFI 2d634 .cfa: x29 16 + .ra: .cfa -8 + ^ x29: .cfa -16 + ^
STACK CFI INIT 2d65c 14 .cfa: sp 0 + .ra: x30
STACK CFI 2d660 .cfa: sp 16 +
STACK CFI INIT 2d670 34 .cfa: sp 0 + .ra: x30
STACK CFI 2d67c .cfa: x29 16 + .ra: .cfa -8 + ^ x29: .cfa -16 + ^
STACK CFI INIT 2d6a4 10 .cfa: sp 0 + .ra: x30
STACK CFI 2d6a8 .cfa: sp 16 +
STACK CFI INIT 2d6b4 2c .cfa: sp 0 + .ra: x30
STACK CFI 2d6c0 .cfa: x29 16 + .ra: .cfa -8 + ^ x29: .cfa -16 + ^
STACK CFI INIT 2d6e0 24 .cfa: sp 0 + .ra: x30
STACK CFI 2d6ec .cfa: x29 16 + .ra: .cfa -8 + ^ x29: .cfa -16 + ^
STACK CFI INIT 2d704 24 .cfa: sp 0 + .ra: x30
STACK CFI 2d710 .cfa: x29 16 + .ra: .cfa -8 + ^ x29: .cfa -16 + ^
STACK CFI INIT 2d728 14 .cfa: sp 0 + .ra: x30
STACK CFI 2d72c .cfa: sp 16 +
STACK CFI INIT 2d73c 14 .cfa: sp 0 + .ra: x30
STACK CFI 2d740 .cfa: sp 16 +
STACK CFI INIT 2d750 24 .cfa: sp 0 + .ra: x30
STACK CFI 2d75c .cfa: x29 16 + .ra: .cfa -8 + ^ x29: .cfa -16 + ^
STACK CFI INIT 2d774 24 .cfa: sp 0 + .ra: x30
STACK CFI 2d780 .cfa: x29 16 + .ra: .cfa -8 + ^ x29: .cfa -16 + ^
STACK CFI INIT 2d798 14 .cfa: sp 0 + .ra: x30
STACK CFI 2d79c .cfa: sp 16 +
STACK CFI INIT 2d7ac 24 .cfa: sp 0 + .ra: x30
STACK CFI 2d7b8 .cfa: x29 16 + .ra: .cfa -8 + ^ x29: .cfa -16 + ^
STACK CFI INIT 2d7d0 1c .cfa: sp 0 + .ra: x30
STACK CFI 2d7d4 .cfa: sp 32 +
STACK CFI INIT 2d7ec 48 .cfa: sp 0 + .ra: x30
STACK CFI 2d7f8 .cfa: x29 16 + .ra: .cfa -8 + ^ x29: .cfa -16 + ^
STACK CFI INIT 2d834 38 .cfa: sp 0 + .ra: x30
STACK CFI 2d83c .cfa: sp 32 + .ra: .cfa -16 + ^
STACK CFI INIT 2d86c b8 .cfa: sp 0 + .ra: x30
STACK CFI 2d878 .cfa: x29 16 + .ra: .cfa -8 + ^ x29: .cfa -16 + ^
STACK CFI INIT 2d924 d0 .cfa: sp 0 + .ra: x30
STACK CFI 2d930 .cfa: x29 16 + .ra: .cfa -8 + ^ x29: .cfa -16 + ^
STACK CFI INIT 2d9f4 d8 .cfa: sp 0 + .ra: x30
STACK CFI 2da00 .cfa: x29 16 + .ra: .cfa -8 + ^ x29: .cfa -16 + ^
STACK CFI INIT 2dacc 98 .cfa: sp 0 + .ra: x30
STACK CFI 2dad8 .cfa: x29 16 + .ra: .cfa -8 + ^ x29: .cfa -16 + ^
STACK CFI INIT 2db64 b8 .cfa: sp 0 + .ra: x30
STACK CFI 2db70 .cfa: x29 16 + .ra: .cfa -8 + ^ x29: .cfa -16 + ^
STACK CFI INIT 2dc1c 80 .cfa: sp 0 + .ra: x30
STACK CFI 2dc28 .cfa: x29 16 + .ra: .cfa -8 + ^ x29: .cfa -16 + ^
STACK CFI INIT 2dc9c 98 .cfa: sp 0 + .ra: x30
STACK CFI 2dca8 .cfa: x29 16 + .ra: .cfa -8 + ^ x29: .cfa -16 + ^
STACK CFI INIT 2dd34 78 .cfa: sp 0 + .ra: x30
STACK CFI 2dd40 .cfa: x29 16 + .ra: .cfa -8 + ^ x29: .cfa -16 + ^
STACK CFI INIT 2ddac 78 .cfa: sp 0 + .ra: x30
STACK CFI 2ddb8 .cfa: x29 16 + .ra: .cfa -8 + ^ x29: .cfa -16 + ^
STACK CFI INIT 2de24 84 .cfa: sp 0 + .ra: x30
STACK CFI 2de30 .cfa: x29 16 + .ra: .cfa -8 + ^ x29: .cfa -16 + ^
STACK CFI INIT 2dea8 50 .cfa: sp 0 + .ra: x30
STACK CFI 2deb4 .cfa: x29 16 + .ra: .cfa -8 + ^ x29: .cfa -16 + ^
STACK CFI INIT 2def8 50 .cfa: sp 0 + .ra: x30
STACK CFI 2df04 .cfa: x29 16 + .ra: .cfa -8 + ^ x29: .cfa -16 + ^
STACK CFI INIT 2df48 14 .cfa: sp 0 + .ra: x30
STACK CFI 2df4c .cfa: sp 16 +
STACK CFI INIT 2df5c 48 .cfa: sp 0 + .ra: x30
STACK CFI 2df68 .cfa: x29 16 + .ra: .cfa -8 + ^ x29: .cfa -16 + ^
STACK CFI INIT 2dfa4 24 .cfa: sp 0 + .ra: x30
STACK CFI 2dfb0 .cfa: x29 16 + .ra: .cfa -8 + ^ x29: .cfa -16 + ^
STACK CFI INIT 2dfc8 10 .cfa: sp 0 + .ra: x30
STACK CFI 2dfcc .cfa: sp 16 +
STACK CFI INIT 2dfd8 84 .cfa: sp 0 + .ra: x30
STACK CFI 2dfe4 .cfa: x29 16 + .ra: .cfa -8 + ^ x29: .cfa -16 + ^
STACK CFI INIT 2e05c 50 .cfa: sp 0 + .ra: x30
STACK CFI 2e068 .cfa: x29 16 + .ra: .cfa -8 + ^ x29: .cfa -16 + ^
STACK CFI INIT 2e0ac 50 .cfa: sp 0 + .ra: x30
STACK CFI 2e0b8 .cfa: x29 16 + .ra: .cfa -8 + ^ x29: .cfa -16 + ^
STACK CFI INIT 2e0fc 24 .cfa: sp 0 + .ra: x30
STACK CFI 2e108 .cfa: x29 16 + .ra: .cfa -8 + ^ x29: .cfa -16 + ^
STACK CFI INIT 2e120 10 .cfa: sp 0 + .ra: x30
STACK CFI 2e124 .cfa: sp 16 +
STACK CFI INIT 2e130 8c .cfa: sp 0 + .ra: x30
STACK CFI 2e13c .cfa: x29 16 + .ra: .cfa -8 + ^ x29: .cfa -16 + ^
STACK CFI INIT 2e1bc 10 .cfa: sp 0 + .ra: x30
STACK CFI 2e1c0 .cfa: sp 16 +
STACK CFI INIT 2e1cc 50 .cfa: sp 0 + .ra: x30
STACK CFI 2e1d8 .cfa: x29 16 + .ra: .cfa -8 + ^ x29: .cfa -16 + ^
STACK CFI INIT 2e21c 14 .cfa: sp 0 + .ra: x30
STACK CFI 2e220 .cfa: sp 16 +
STACK CFI INIT 2e230 48 .cfa: sp 0 + .ra: x30
STACK CFI 2e23c .cfa: x29 16 + .ra: .cfa -8 + ^ x29: .cfa -16 + ^
STACK CFI INIT 2e278 24 .cfa: sp 0 + .ra: x30
STACK CFI 2e284 .cfa: x29 16 + .ra: .cfa -8 + ^ x29: .cfa -16 + ^
STACK CFI INIT 2e29c 10 .cfa: sp 0 + .ra: x30
STACK CFI 2e2a0 .cfa: sp 16 +
STACK CFI INIT 2e2ac 2c .cfa: sp 0 + .ra: x30
STACK CFI 2e2b8 .cfa: x29 16 + .ra: .cfa -8 + ^ x29: .cfa -16 + ^
STACK CFI INIT 2e2d8 18 .cfa: sp 0 + .ra: x30
STACK CFI 2e2dc .cfa: sp 32 +
STACK CFI INIT 2e2f0 64 .cfa: sp 0 + .ra: x30
STACK CFI 2e2fc .cfa: x29 16 + .ra: .cfa -8 + ^ x29: .cfa -16 + ^
STACK CFI INIT 2e354 2c .cfa: sp 0 + .ra: x30
STACK CFI 2e360 .cfa: x29 16 + .ra: .cfa -8 + ^ x29: .cfa -16 + ^
STACK CFI INIT 2e380 14 .cfa: sp 0 + .ra: x30
STACK CFI 2e384 .cfa: sp 16 +
STACK CFI INIT 2e394 14 .cfa: sp 0 + .ra: x30
STACK CFI 2e398 .cfa: sp 16 +
STACK CFI INIT 2e3a8 10 .cfa: sp 0 + .ra: x30
STACK CFI 2e3ac .cfa: sp 16 +
STACK CFI INIT 2e3b8 12c .cfa: sp 0 + .ra: x30
STACK CFI 2e3c4 .cfa: x29 16 + .ra: .cfa -8 + ^ x29: .cfa -16 + ^
STACK CFI INIT 2e4e4 24 .cfa: sp 0 + .ra: x30
STACK CFI 2e4f0 .cfa: x29 16 + .ra: .cfa -8 + ^ x29: .cfa -16 + ^
STACK CFI INIT 2e508 14 .cfa: sp 0 + .ra: x30
STACK CFI 2e50c .cfa: sp 16 +
STACK CFI INIT 2e51c 60 .cfa: sp 0 + .ra: x30
STACK CFI 2e528 .cfa: x29 16 + .ra: .cfa -8 + ^ x29: .cfa -16 + ^
STACK CFI INIT 2e57c 14 .cfa: sp 0 + .ra: x30
STACK CFI 2e580 .cfa: sp 16 +
STACK CFI INIT 2e590 44 .cfa: sp 0 + .ra: x30
STACK CFI 2e59c .cfa: x29 16 + .ra: .cfa -8 + ^ x29: .cfa -16 + ^
STACK CFI INIT 2e5d4 24 .cfa: sp 0 + .ra: x30
STACK CFI 2e5e0 .cfa: x29 16 + .ra: .cfa -8 + ^ x29: .cfa -16 + ^
STACK CFI INIT 2e5f8 14 .cfa: sp 0 + .ra: x30
STACK CFI 2e5fc .cfa: sp 16 +
STACK CFI INIT 2e60c e4 .cfa: sp 0 + .ra: x30
STACK CFI 2e618 .cfa: x29 16 + .ra: .cfa -8 + ^ x29: .cfa -16 + ^
STACK CFI INIT 2e6f0 ec .cfa: sp 0 + .ra: x30
STACK CFI 2e6fc .cfa: x29 16 + .ra: .cfa -8 + ^ x29: .cfa -16 + ^
STACK CFI INIT 2e7dc f8 .cfa: sp 0 + .ra: x30
STACK CFI 2e7e8 .cfa: x29 16 + .ra: .cfa -8 + ^ x29: .cfa -16 + ^
STACK CFI INIT 2e8d4 8c .cfa: sp 0 + .ra: x30
STACK CFI 2e8e0 .cfa: x29 16 + .ra: .cfa -8 + ^ x29: .cfa -16 + ^
STACK CFI INIT 2e960 8c .cfa: sp 0 + .ra: x30
STACK CFI 2e96c .cfa: x29 16 + .ra: .cfa -8 + ^ x29: .cfa -16 + ^
STACK CFI INIT 2e9ec 20 .cfa: sp 0 + .ra: x30
STACK CFI 2e9f8 .cfa: x29 16 + .ra: .cfa -8 + ^ x29: .cfa -16 + ^
STACK CFI INIT 2ea0c 24 .cfa: sp 0 + .ra: x30
STACK CFI 2ea18 .cfa: x29 16 + .ra: .cfa -8 + ^ x29: .cfa -16 + ^
STACK CFI INIT 2ea30 34 .cfa: sp 0 + .ra: x30
STACK CFI 2ea3c .cfa: x29 16 + .ra: .cfa -8 + ^ x29: .cfa -16 + ^
STACK CFI INIT 2ea64 34 .cfa: sp 0 + .ra: x30
STACK CFI 2ea70 .cfa: x29 16 + .ra: .cfa -8 + ^ x29: .cfa -16 + ^
STACK CFI INIT 2ea98 2c .cfa: sp 0 + .ra: x30
STACK CFI 2eaa4 .cfa: x29 16 + .ra: .cfa -8 + ^ x29: .cfa -16 + ^
STACK CFI INIT 2eac4 2c .cfa: sp 0 + .ra: x30
STACK CFI 2ead0 .cfa: x29 16 + .ra: .cfa -8 + ^ x29: .cfa -16 + ^
STACK CFI INIT 2eaf0 14 .cfa: sp 0 + .ra: x30
STACK CFI 2eaf8 .cfa: x29 16 + .ra: .cfa -8 + ^ x29: .cfa -16 + ^
STACK CFI INIT 2eb04 8c .cfa: sp 0 + .ra: x30
STACK CFI 2eb10 .cfa: x29 16 + .ra: .cfa -8 + ^ x29: .cfa -16 + ^
STACK CFI INIT 2eb90 3c .cfa: sp 0 + .ra: x30
STACK CFI 2eb94 .cfa: sp 32 +
STACK CFI INIT 2ebcc 2c .cfa: sp 0 + .ra: x30
STACK CFI 2ebd8 .cfa: x29 16 + .ra: .cfa -8 + ^ x29: .cfa -16 + ^
STACK CFI INIT 2ebf8 18 .cfa: sp 0 + .ra: x30
STACK CFI 2ebfc .cfa: sp 16 +
STACK CFI INIT 2ec10 24 .cfa: sp 0 + .ra: x30
STACK CFI 2ec1c .cfa: x29 16 + .ra: .cfa -8 + ^ x29: .cfa -16 + ^
STACK CFI INIT 2ec34 14 .cfa: sp 0 + .ra: x30
STACK CFI 2ec38 .cfa: sp 16 +
STACK CFI INIT 2ec48 8 .cfa: sp 0 + .ra: x30
STACK CFI INIT 2ec50 48 .cfa: sp 0 + .ra: x30
STACK CFI 2ec5c .cfa: x29 16 + .ra: .cfa -8 + ^ x29: .cfa -16 + ^
STACK CFI INIT 2ec98 2c .cfa: sp 0 + .ra: x30
STACK CFI 2eca4 .cfa: x29 16 + .ra: .cfa -8 + ^ x29: .cfa -16 + ^
STACK CFI INIT 2ecc4 24 .cfa: sp 0 + .ra: x30
STACK CFI 2ecd0 .cfa: x29 16 + .ra: .cfa -8 + ^ x29: .cfa -16 + ^
STACK CFI INIT 2ece8 14 .cfa: sp 0 + .ra: x30
STACK CFI 2ecec .cfa: sp 16 +
STACK CFI INIT 2ecfc 8c .cfa: sp 0 + .ra: x30
STACK CFI 2ed08 .cfa: x29 16 + .ra: .cfa -8 + ^ x29: .cfa -16 + ^
STACK CFI INIT 2ed88 84 .cfa: sp 0 + .ra: x30
STACK CFI 2ed94 .cfa: x29 16 + .ra: .cfa -8 + ^ x29: .cfa -16 + ^
STACK CFI INIT 2ee0c 34 .cfa: sp 0 + .ra: x30
STACK CFI 2ee18 .cfa: x29 16 + .ra: .cfa -8 + ^ x29: .cfa -16 + ^
STACK CFI INIT 2ee40 2c .cfa: sp 0 + .ra: x30
STACK CFI 2ee4c .cfa: x29 16 + .ra: .cfa -8 + ^ x29: .cfa -16 + ^
STACK CFI INIT 2ee6c 2c .cfa: sp 0 + .ra: x30
STACK CFI 2ee78 .cfa: x29 16 + .ra: .cfa -8 + ^ x29: .cfa -16 + ^
STACK CFI INIT 2ee98 14 .cfa: sp 0 + .ra: x30
STACK CFI 2ee9c .cfa: sp 16 +
STACK CFI INIT 2eeac 3c .cfa: sp 0 + .ra: x30
STACK CFI 2eeb8 .cfa: x29 16 + .ra: .cfa -8 + ^ x29: .cfa -16 + ^
STACK CFI INIT 2eee8 70 .cfa: sp 0 + .ra: x30
STACK CFI 2eef4 .cfa: x29 16 + .ra: .cfa -8 + ^ x29: .cfa -16 + ^
STACK CFI INIT 2ef58 2c .cfa: sp 0 + .ra: x30
STACK CFI 2ef64 .cfa: x29 16 + .ra: .cfa -8 + ^ x29: .cfa -16 + ^
STACK CFI INIT 2ef84 18 .cfa: sp 0 + .ra: x30
STACK CFI 2ef88 .cfa: sp 16 +
STACK CFI INIT 2ef9c 24 .cfa: sp 0 + .ra: x30
STACK CFI 2efa8 .cfa: x29 16 + .ra: .cfa -8 + ^ x29: .cfa -16 + ^
STACK CFI INIT 2efc0 d4 .cfa: sp 0 + .ra: x30
STACK CFI 2efcc .cfa: x29 16 + .ra: .cfa -8 + ^ x29: .cfa -16 + ^
STACK CFI INIT 2f094 88 .cfa: sp 0 + .ra: x30
STACK CFI 2f09c .cfa: sp 64 + .ra: .cfa -16 + ^
STACK CFI INIT 2f11c 88 .cfa: sp 0 + .ra: x30
STACK CFI 2f128 .cfa: x29 16 + .ra: .cfa -8 + ^ x29: .cfa -16 + ^
STACK CFI INIT 2f1a4 c8 .cfa: sp 0 + .ra: x30
STACK CFI 2f1b0 .cfa: x29 16 + .ra: .cfa -8 + ^ x29: .cfa -16 + ^
STACK CFI INIT 2f26c 10 .cfa: sp 0 + .ra: x30
STACK CFI 2f270 .cfa: sp 16 +
STACK CFI INIT 2f27c 20 .cfa: sp 0 + .ra: x30
STACK CFI 2f280 .cfa: sp 48 +
STACK CFI INIT 2f29c 28 .cfa: sp 0 + .ra: x30
STACK CFI 2f2a8 .cfa: x29 16 + .ra: .cfa -8 + ^ x29: .cfa -16 + ^
STACK CFI INIT 2f2c4 14 .cfa: sp 0 + .ra: x30
STACK CFI 2f2c8 .cfa: sp 16 +
STACK CFI INIT 2f2d8 28 .cfa: sp 0 + .ra: x30
STACK CFI 2f2e4 .cfa: x29 16 + .ra: .cfa -8 + ^ x29: .cfa -16 + ^
STACK CFI INIT 2f300 34 .cfa: sp 0 + .ra: x30
STACK CFI 2f30c .cfa: x29 16 + .ra: .cfa -8 + ^ x29: .cfa -16 + ^
STACK CFI INIT 2f334 48 .cfa: sp 0 + .ra: x30
STACK CFI 2f340 .cfa: x29 16 + .ra: .cfa -8 + ^ x29: .cfa -16 + ^
STACK CFI INIT 2f37c 34 .cfa: sp 0 + .ra: x30
STACK CFI 2f388 .cfa: x29 16 + .ra: .cfa -8 + ^ x29: .cfa -16 + ^
STACK CFI INIT 2f3b0 9c .cfa: sp 0 + .ra: x30
STACK CFI 2f3bc .cfa: x29 16 + .ra: .cfa -8 + ^ x29: .cfa -16 + ^
STACK CFI INIT 2f44c 34 .cfa: sp 0 + .ra: x30
STACK CFI 2f458 .cfa: x29 16 + .ra: .cfa -8 + ^ x29: .cfa -16 + ^
STACK CFI INIT 2f480 34 .cfa: sp 0 + .ra: x30
STACK CFI 2f48c .cfa: x29 16 + .ra: .cfa -8 + ^ x29: .cfa -16 + ^
STACK CFI INIT 2f4b4 14 .cfa: sp 0 + .ra: x30
STACK CFI 2f4b8 .cfa: sp 16 +
STACK CFI INIT 2f4c8 44 .cfa: sp 0 + .ra: x30
STACK CFI 2f4d4 .cfa: x29 16 + .ra: .cfa -8 + ^ x29: .cfa -16 + ^
STACK CFI INIT 2f50c 2c .cfa: sp 0 + .ra: x30
STACK CFI 2f518 .cfa: x29 16 + .ra: .cfa -8 + ^ x29: .cfa -16 + ^
STACK CFI INIT 2f538 24 .cfa: sp 0 + .ra: x30
STACK CFI 2f544 .cfa: x29 16 + .ra: .cfa -8 + ^ x29: .cfa -16 + ^
STACK CFI INIT 2f55c 68 .cfa: sp 0 + .ra: x30
STACK CFI 2f568 .cfa: x29 16 + .ra: .cfa -8 + ^ x29: .cfa -16 + ^
STACK CFI INIT 2f5c4 20 .cfa: sp 0 + .ra: x30
STACK CFI 2f5c8 .cfa: sp 16 +
STACK CFI INIT 2f5e4 48 .cfa: sp 0 + .ra: x30
STACK CFI 2f5f0 .cfa: x29 16 + .ra: .cfa -8 + ^ x29: .cfa -16 + ^
STACK CFI INIT 2f62c 18 .cfa: sp 0 + .ra: x30
STACK CFI 2f630 .cfa: sp 16 +
STACK CFI INIT 2f644 28 .cfa: sp 0 + .ra: x30
STACK CFI 2f648 .cfa: sp 16 +
STACK CFI INIT 2f66c 50 .cfa: sp 0 + .ra: x30
STACK CFI 2f678 .cfa: x29 16 + .ra: .cfa -8 + ^ x29: .cfa -16 + ^
STACK CFI INIT 2f6bc 18 .cfa: sp 0 + .ra: x30
STACK CFI 2f6c0 .cfa: sp 16 +
STACK CFI INIT 2f6d4 50 .cfa: sp 0 + .ra: x30
STACK CFI 2f6e0 .cfa: x29 16 + .ra: .cfa -8 + ^ x29: .cfa -16 + ^
STACK CFI INIT 2f724 38 .cfa: sp 0 + .ra: x30
STACK CFI 2f730 .cfa: x29 16 + .ra: .cfa -8 + ^ x29: .cfa -16 + ^
STACK CFI INIT 2f75c 60 .cfa: sp 0 + .ra: x30
STACK CFI 2f768 .cfa: x29 16 + .ra: .cfa -8 + ^ x29: .cfa -16 + ^
STACK CFI INIT 2f7bc 64 .cfa: sp 0 + .ra: x30
STACK CFI 2f7c8 .cfa: x29 16 + .ra: .cfa -8 + ^ x29: .cfa -16 + ^
STACK CFI INIT 2f820 14 .cfa: sp 0 + .ra: x30
STACK CFI 2f824 .cfa: sp 16 +
STACK CFI INIT 2f834 18 .cfa: sp 0 + .ra: x30
STACK CFI 2f838 .cfa: sp 16 +
STACK CFI INIT 2f84c 40 .cfa: sp 0 + .ra: x30
STACK CFI 2f858 .cfa: x29 16 + .ra: .cfa -8 + ^ x29: .cfa -16 + ^
STACK CFI INIT 2f88c 68 .cfa: sp 0 + .ra: x30
STACK CFI 2f898 .cfa: x29 16 + .ra: .cfa -8 + ^ x29: .cfa -16 + ^
STACK CFI INIT 2f8f4 20 .cfa: sp 0 + .ra: x30
STACK CFI 2f8f8 .cfa: sp 16 +
STACK CFI INIT 2f914 a0 .cfa: sp 0 + .ra: x30
STACK CFI 2f920 .cfa: x29 16 + .ra: .cfa -8 + ^ x29: .cfa -16 + ^
STACK CFI INIT 2f9b4 c8 .cfa: sp 0 + .ra: x30
STACK CFI 2f9c0 .cfa: x29 16 + .ra: .cfa -8 + ^ x29: .cfa -16 + ^
STACK CFI INIT 2fa7c 80 .cfa: sp 0 + .ra: x30
STACK CFI 2fa84 .cfa: sp 48 + .ra: .cfa -16 + ^
STACK CFI INIT 2fafc 14 .cfa: sp 0 + .ra: x30
STACK CFI 2fb00 .cfa: sp 16 +
STACK CFI INIT 2fb10 84 .cfa: sp 0 + .ra: x30
STACK CFI 2fb1c .cfa: x29 16 + .ra: .cfa -8 + ^ x29: .cfa -16 + ^
STACK CFI INIT 2fb94 2c .cfa: sp 0 + .ra: x30
STACK CFI 2fba0 .cfa: x29 16 + .ra: .cfa -8 + ^ x29: .cfa -16 + ^
STACK CFI INIT 2fbc0 28 .cfa: sp 0 + .ra: x30
STACK CFI 2fbcc .cfa: x29 16 + .ra: .cfa -8 + ^ x29: .cfa -16 + ^
STACK CFI INIT 2fbe8 54 .cfa: sp 0 + .ra: x30
STACK CFI 2fbf4 .cfa: x29 16 + .ra: .cfa -8 + ^ x29: .cfa -16 + ^
STACK CFI INIT 2fc3c 38 .cfa: sp 0 + .ra: x30
STACK CFI 2fc48 .cfa: x29 16 + .ra: .cfa -8 + ^ x29: .cfa -16 + ^
STACK CFI INIT 2fc74 24 .cfa: sp 0 + .ra: x30
STACK CFI 2fc80 .cfa: x29 16 + .ra: .cfa -8 + ^ x29: .cfa -16 + ^
STACK CFI INIT 2fc98 14 .cfa: sp 0 + .ra: x30
STACK CFI 2fc9c .cfa: sp 16 +
STACK CFI INIT 2fcac ac .cfa: sp 0 + .ra: x30
STACK CFI 2fcb8 .cfa: x29 16 + .ra: .cfa -8 + ^ x29: .cfa -16 + ^
STACK CFI INIT 2fd58 64 .cfa: sp 0 + .ra: x30
STACK CFI 2fd64 .cfa: x29 16 + .ra: .cfa -8 + ^ x29: .cfa -16 + ^
STACK CFI INIT 2fdbc 28 .cfa: sp 0 + .ra: x30
STACK CFI 2fdc8 .cfa: x29 16 + .ra: .cfa -8 + ^ x29: .cfa -16 + ^
STACK CFI INIT 2fde4 64 .cfa: sp 0 + .ra: x30
STACK CFI 2fdf0 .cfa: x29 16 + .ra: .cfa -8 + ^ x29: .cfa -16 + ^
STACK CFI INIT 2fe48 28 .cfa: sp 0 + .ra: x30
STACK CFI 2fe54 .cfa: x29 16 + .ra: .cfa -8 + ^ x29: .cfa -16 + ^
STACK CFI INIT 2fe70 24 .cfa: sp 0 + .ra: x30
STACK CFI 2fe7c .cfa: x29 16 + .ra: .cfa -8 + ^ x29: .cfa -16 + ^
STACK CFI INIT 2fe94 58 .cfa: sp 0 + .ra: x30
STACK CFI 2fea0 .cfa: x29 16 + .ra: .cfa -8 + ^ x29: .cfa -16 + ^
STACK CFI INIT 2feec 2c .cfa: sp 0 + .ra: x30
STACK CFI 2fef8 .cfa: x29 16 + .ra: .cfa -8 + ^ x29: .cfa -16 + ^
STACK CFI INIT 2ff18 34 .cfa: sp 0 + .ra: x30
STACK CFI 2ff24 .cfa: x29 16 + .ra: .cfa -8 + ^ x29: .cfa -16 + ^
STACK CFI INIT 2ff4c 30 .cfa: sp 0 + .ra: x30
STACK CFI 2ff50 .cfa: sp 32 +
STACK CFI INIT 2ff7c 88 .cfa: sp 0 + .ra: x30
STACK CFI 2ff88 .cfa: x29 16 + .ra: .cfa -8 + ^ x29: .cfa -16 + ^
STACK CFI INIT 30004 70 .cfa: sp 0 + .ra: x30
STACK CFI 30010 .cfa: x29 16 + .ra: .cfa -8 + ^ x29: .cfa -16 + ^
STACK CFI INIT 30074 24 .cfa: sp 0 + .ra: x30
STACK CFI 30078 .cfa: sp 16 +
STACK CFI INIT 30098 14 .cfa: sp 0 + .ra: x30
STACK CFI 3009c .cfa: sp 16 +
STACK CFI INIT 300ac 84 .cfa: sp 0 + .ra: x30
STACK CFI 300b8 .cfa: x29 16 + .ra: .cfa -8 + ^ x29: .cfa -16 + ^
STACK CFI INIT 30130 14 .cfa: sp 0 + .ra: x30
STACK CFI 30134 .cfa: sp 16 +
STACK CFI INIT 30144 40 .cfa: sp 0 + .ra: x30
STACK CFI 30150 .cfa: x29 16 + .ra: .cfa -8 + ^ x29: .cfa -16 + ^
STACK CFI INIT 30184 14 .cfa: sp 0 + .ra: x30
STACK CFI 30188 .cfa: sp 16 +
STACK CFI INIT 30198 54 .cfa: sp 0 + .ra: x30
STACK CFI 301a4 .cfa: x29 16 + .ra: .cfa -8 + ^ x29: .cfa -16 + ^
STACK CFI INIT 301ec 60 .cfa: sp 0 + .ra: x30
STACK CFI 301f8 .cfa: x29 16 + .ra: .cfa -8 + ^ x29: .cfa -16 + ^
STACK CFI INIT 3024c 14 .cfa: sp 0 + .ra: x30
STACK CFI 30250 .cfa: sp 16 +
STACK CFI INIT 30260 58 .cfa: sp 0 + .ra: x30
STACK CFI 3026c .cfa: x29 16 + .ra: .cfa -8 + ^ x29: .cfa -16 + ^
STACK CFI INIT 302b8 24 .cfa: sp 0 + .ra: x30
STACK CFI 302c4 .cfa: x29 16 + .ra: .cfa -8 + ^ x29: .cfa -16 + ^
STACK CFI INIT 302dc 14 .cfa: sp 0 + .ra: x30
STACK CFI 302e0 .cfa: sp 16 +
STACK CFI INIT 302f0 24 .cfa: sp 0 + .ra: x30
STACK CFI 302fc .cfa: x29 16 + .ra: .cfa -8 + ^ x29: .cfa -16 + ^
STACK CFI INIT 30314 14 .cfa: sp 0 + .ra: x30
STACK CFI 30318 .cfa: sp 16 +
STACK CFI INIT 30328 88 .cfa: sp 0 + .ra: x30
STACK CFI 30334 .cfa: x29 16 + .ra: .cfa -8 + ^ x29: .cfa -16 + ^
STACK CFI INIT 303b0 2c .cfa: sp 0 + .ra: x30
STACK CFI 303bc .cfa: x29 16 + .ra: .cfa -8 + ^ x29: .cfa -16 + ^
STACK CFI INIT 303dc 40 .cfa: sp 0 + .ra: x30
STACK CFI 303e8 .cfa: x29 16 + .ra: .cfa -8 + ^ x29: .cfa -16 + ^
STACK CFI INIT 3041c 14 .cfa: sp 0 + .ra: x30
STACK CFI 30420 .cfa: sp 16 +
STACK CFI INIT 30430 68 .cfa: sp 0 + .ra: x30
STACK CFI 3043c .cfa: x29 16 + .ra: .cfa -8 + ^ x29: .cfa -16 + ^
STACK CFI INIT 30498 20 .cfa: sp 0 + .ra: x30
STACK CFI 3049c .cfa: sp 16 +
STACK CFI INIT 304b8 74 .cfa: sp 0 + .ra: x30
STACK CFI 304c4 .cfa: x29 16 + .ra: .cfa -8 + ^ x29: .cfa -16 + ^
STACK CFI INIT 3052c 38 .cfa: sp 0 + .ra: x30
STACK CFI 30538 .cfa: x29 16 + .ra: .cfa -8 + ^ x29: .cfa -16 + ^
STACK CFI INIT 30564 34 .cfa: sp 0 + .ra: x30
STACK CFI 30568 .cfa: sp 16 +
STACK CFI INIT 30598 28 .cfa: sp 0 + .ra: x30
STACK CFI 3059c .cfa: sp 16 +
STACK CFI INIT 305c0 38 .cfa: sp 0 + .ra: x30
STACK CFI 305c4 .cfa: sp 16 +
STACK CFI INIT 305f8 ac .cfa: sp 0 + .ra: x30
STACK CFI 30604 .cfa: x29 16 + .ra: .cfa -8 + ^ x29: .cfa -16 + ^
STACK CFI INIT 306a4 64 .cfa: sp 0 + .ra: x30
STACK CFI 306b0 .cfa: x29 16 + .ra: .cfa -8 + ^ x29: .cfa -16 + ^
STACK CFI INIT 30708 28 .cfa: sp 0 + .ra: x30
STACK CFI 30714 .cfa: x29 16 + .ra: .cfa -8 + ^ x29: .cfa -16 + ^
STACK CFI INIT 30730 64 .cfa: sp 0 + .ra: x30
STACK CFI 3073c .cfa: x29 16 + .ra: .cfa -8 + ^ x29: .cfa -16 + ^
STACK CFI INIT 30794 28 .cfa: sp 0 + .ra: x30
STACK CFI 307a0 .cfa: x29 16 + .ra: .cfa -8 + ^ x29: .cfa -16 + ^
STACK CFI INIT 307bc 24 .cfa: sp 0 + .ra: x30
STACK CFI 307c8 .cfa: x29 16 + .ra: .cfa -8 + ^ x29: .cfa -16 + ^
STACK CFI INIT 307e0 58 .cfa: sp 0 + .ra: x30
STACK CFI 307ec .cfa: x29 16 + .ra: .cfa -8 + ^ x29: .cfa -16 + ^
STACK CFI INIT 30838 2c .cfa: sp 0 + .ra: x30
STACK CFI 30844 .cfa: x29 16 + .ra: .cfa -8 + ^ x29: .cfa -16 + ^
STACK CFI INIT 30864 34 .cfa: sp 0 + .ra: x30
STACK CFI 30870 .cfa: x29 16 + .ra: .cfa -8 + ^ x29: .cfa -16 + ^
STACK CFI INIT 30898 30 .cfa: sp 0 + .ra: x30
STACK CFI 3089c .cfa: sp 32 +
STACK CFI INIT 308c8 88 .cfa: sp 0 + .ra: x30
STACK CFI 308d4 .cfa: x29 16 + .ra: .cfa -8 + ^ x29: .cfa -16 + ^
STACK CFI INIT 30950 70 .cfa: sp 0 + .ra: x30
STACK CFI 3095c .cfa: x29 16 + .ra: .cfa -8 + ^ x29: .cfa -16 + ^
STACK CFI INIT 309c0 18 .cfa: sp 0 + .ra: x30
STACK CFI 309c4 .cfa: sp 16 +
STACK CFI INIT 309d8 14 .cfa: sp 0 + .ra: x30
STACK CFI 309dc .cfa: sp 16 +
STACK CFI INIT 309ec 84 .cfa: sp 0 + .ra: x30
STACK CFI 309f8 .cfa: x29 16 + .ra: .cfa -8 + ^ x29: .cfa -16 + ^
STACK CFI INIT 30a70 14 .cfa: sp 0 + .ra: x30
STACK CFI 30a74 .cfa: sp 16 +
STACK CFI INIT 30a84 40 .cfa: sp 0 + .ra: x30
STACK CFI 30a90 .cfa: x29 16 + .ra: .cfa -8 + ^ x29: .cfa -16 + ^
STACK CFI INIT 30ac4 14 .cfa: sp 0 + .ra: x30
STACK CFI 30ac8 .cfa: sp 16 +
STACK CFI INIT 30ad8 54 .cfa: sp 0 + .ra: x30
STACK CFI 30ae4 .cfa: x29 16 + .ra: .cfa -8 + ^ x29: .cfa -16 + ^
STACK CFI INIT 30b2c 60 .cfa: sp 0 + .ra: x30
STACK CFI 30b38 .cfa: x29 16 + .ra: .cfa -8 + ^ x29: .cfa -16 + ^
STACK CFI INIT 30b8c 14 .cfa: sp 0 + .ra: x30
STACK CFI 30b90 .cfa: sp 16 +
STACK CFI INIT 30ba0 58 .cfa: sp 0 + .ra: x30
STACK CFI 30bac .cfa: x29 16 + .ra: .cfa -8 + ^ x29: .cfa -16 + ^
STACK CFI INIT 30bf8 24 .cfa: sp 0 + .ra: x30
STACK CFI 30c04 .cfa: x29 16 + .ra: .cfa -8 + ^ x29: .cfa -16 + ^
STACK CFI INIT 30c1c 14 .cfa: sp 0 + .ra: x30
STACK CFI 30c20 .cfa: sp 16 +
STACK CFI INIT 30c30 24 .cfa: sp 0 + .ra: x30
STACK CFI 30c3c .cfa: x29 16 + .ra: .cfa -8 + ^ x29: .cfa -16 + ^
STACK CFI INIT 30c54 14 .cfa: sp 0 + .ra: x30
STACK CFI 30c58 .cfa: sp 16 +
STACK CFI INIT 30c68 88 .cfa: sp 0 + .ra: x30
STACK CFI 30c74 .cfa: x29 16 + .ra: .cfa -8 + ^ x29: .cfa -16 + ^
STACK CFI INIT 30cf0 2c .cfa: sp 0 + .ra: x30
STACK CFI 30cfc .cfa: x29 16 + .ra: .cfa -8 + ^ x29: .cfa -16 + ^
STACK CFI INIT 30d1c 40 .cfa: sp 0 + .ra: x30
STACK CFI 30d28 .cfa: x29 16 + .ra: .cfa -8 + ^ x29: .cfa -16 + ^
STACK CFI INIT 30d5c 14 .cfa: sp 0 + .ra: x30
STACK CFI 30d60 .cfa: sp 16 +
STACK CFI INIT 30d70 174 .cfa: sp 0 + .ra: x30
STACK CFI 30d7c .cfa: x29 16 + .ra: .cfa -8 + ^ x29: .cfa -16 + ^
STACK CFI INIT 30ee4 168 .cfa: sp 0 + .ra: x30
STACK CFI 30ef0 .cfa: x29 16 + .ra: .cfa -8 + ^ x29: .cfa -16 + ^
STACK CFI INIT 3104c 7c .cfa: sp 0 + .ra: x30
STACK CFI 31058 .cfa: x29 16 + .ra: .cfa -8 + ^ x29: .cfa -16 + ^
STACK CFI INIT 310c8 e0 .cfa: sp 0 + .ra: x30
STACK CFI 310d4 .cfa: x29 16 + .ra: .cfa -8 + ^ x29: .cfa -16 + ^
STACK CFI INIT 311a8 1d8 .cfa: sp 0 + .ra: x30
STACK CFI 311b4 .cfa: x29 16 + .ra: .cfa -8 + ^ x29: .cfa -16 + ^
STACK CFI INIT 31380 48 .cfa: sp 0 + .ra: x30
STACK CFI 3138c .cfa: x29 16 + .ra: .cfa -8 + ^ x29: .cfa -16 + ^
STACK CFI INIT 313c8 10c .cfa: sp 0 + .ra: x30
STACK CFI 313d4 .cfa: x29 16 + .ra: .cfa -8 + ^ x29: .cfa -16 + ^
STACK CFI INIT 314d4 3c .cfa: sp 0 + .ra: x30
STACK CFI 314e0 .cfa: x29 16 + .ra: .cfa -8 + ^ x29: .cfa -16 + ^
STACK CFI INIT 31510 34 .cfa: sp 0 + .ra: x30
STACK CFI 3151c .cfa: x29 16 + .ra: .cfa -8 + ^ x29: .cfa -16 + ^
STACK CFI INIT 31544 13c .cfa: sp 0 + .ra: x30
STACK CFI 31550 .cfa: x29 16 + .ra: .cfa -8 + ^ x29: .cfa -16 + ^
STACK CFI INIT 31680 1c .cfa: sp 0 + .ra: x30
STACK CFI 31684 .cfa: sp 32 +
STACK CFI INIT 3169c 50 .cfa: sp 0 + .ra: x30
STACK CFI 316a8 .cfa: x29 16 + .ra: .cfa -8 + ^ x29: .cfa -16 + ^
STACK CFI INIT 316ec 54 .cfa: sp 0 + .ra: x30
STACK CFI 316f8 .cfa: x29 16 + .ra: .cfa -8 + ^ x29: .cfa -16 + ^
STACK CFI INIT 31740 60 .cfa: sp 0 + .ra: x30
STACK CFI 31748 .cfa: sp 64 + .ra: .cfa -16 + ^
STACK CFI INIT 317a0 50 .cfa: sp 0 + .ra: x30
STACK CFI 317ac .cfa: x29 16 + .ra: .cfa -8 + ^ x29: .cfa -16 + ^
STACK CFI INIT 317f0 14 .cfa: sp 0 + .ra: x30
STACK CFI 317f4 .cfa: sp 16 +
STACK CFI INIT 31804 2b4 .cfa: sp 0 + .ra: x30
STACK CFI 31810 .cfa: x29 16 + .ra: .cfa -8 + ^ x29: .cfa -16 + ^
STACK CFI INIT 31ab8 10 .cfa: sp 0 + .ra: x30
STACK CFI 31abc .cfa: sp 16 +
STACK CFI INIT 31ac8 24 .cfa: sp 0 + .ra: x30
STACK CFI 31ad4 .cfa: x29 16 + .ra: .cfa -8 + ^ x29: .cfa -16 + ^
STACK CFI INIT 31aec 54 .cfa: sp 0 + .ra: x30
STACK CFI 31af8 .cfa: x29 16 + .ra: .cfa -8 + ^ x29: .cfa -16 + ^
STACK CFI INIT 31b40 148 .cfa: sp 0 + .ra: x30
STACK CFI 31b4c .cfa: x29 16 + .ra: .cfa -8 + ^ x29: .cfa -16 + ^
STACK CFI INIT 31c88 154 .cfa: sp 0 + .ra: x30
STACK CFI 31c94 .cfa: x29 16 + .ra: .cfa -8 + ^ x29: .cfa -16 + ^
STACK CFI INIT 31ddc 54 .cfa: sp 0 + .ra: x30
STACK CFI 31de8 .cfa: x29 16 + .ra: .cfa -8 + ^ x29: .cfa -16 + ^
STACK CFI INIT 31e30 14 .cfa: sp 0 + .ra: x30
STACK CFI 31e34 .cfa: sp 16 +
STACK CFI INIT 31e44 28 .cfa: sp 0 + .ra: x30
STACK CFI 31e50 .cfa: x29 16 + .ra: .cfa -8 + ^ x29: .cfa -16 + ^
STACK CFI INIT 31e6c 14 .cfa: sp 0 + .ra: x30
STACK CFI 31e70 .cfa: sp 16 +
STACK CFI INIT 31e80 54 .cfa: sp 0 + .ra: x30
STACK CFI 31e8c .cfa: x29 16 + .ra: .cfa -8 + ^ x29: .cfa -16 + ^
STACK CFI INIT 31ed4 5c .cfa: sp 0 + .ra: x30
STACK CFI 31ee0 .cfa: x29 16 + .ra: .cfa -8 + ^ x29: .cfa -16 + ^
STACK CFI INIT 31f30 14 .cfa: sp 0 + .ra: x30
STACK CFI 31f34 .cfa: sp 16 +
STACK CFI INIT 31f44 7c .cfa: sp 0 + .ra: x30
STACK CFI 31f50 .cfa: x29 16 + .ra: .cfa -8 + ^ x29: .cfa -16 + ^
STACK CFI INIT 31fc0 90 .cfa: sp 0 + .ra: x30
STACK CFI 31fcc .cfa: x29 16 + .ra: .cfa -8 + ^ x29: .cfa -16 + ^
STACK CFI INIT 32050 34 .cfa: sp 0 + .ra: x30
STACK CFI 3205c .cfa: x29 16 + .ra: .cfa -8 + ^ x29: .cfa -16 + ^
STACK CFI INIT 32084 4c .cfa: sp 0 + .ra: x30
STACK CFI 32090 .cfa: x29 16 + .ra: .cfa -8 + ^ x29: .cfa -16 + ^
STACK CFI INIT 320d0 14 .cfa: sp 0 + .ra: x30
STACK CFI 320d4 .cfa: sp 16 +
STACK CFI INIT 320e4 7c .cfa: sp 0 + .ra: x30
STACK CFI 320f0 .cfa: x29 16 + .ra: .cfa -8 + ^ x29: .cfa -16 + ^
STACK CFI INIT 32160 88 .cfa: sp 0 + .ra: x30
STACK CFI 3216c .cfa: x29 16 + .ra: .cfa -8 + ^ x29: .cfa -16 + ^
STACK CFI INIT 321e8 3c .cfa: sp 0 + .ra: x30
STACK CFI 321f4 .cfa: x29 16 + .ra: .cfa -8 + ^ x29: .cfa -16 + ^
STACK CFI INIT 32224 1dc .cfa: sp 0 + .ra: x30
STACK CFI 32234 .cfa: x29 16 + .ra: .cfa -8 + ^ x28: .cfa -32 + ^ x29: .cfa -16 + ^
STACK CFI INIT 32400 20 .cfa: sp 0 + .ra: x30
STACK CFI 32404 .cfa: sp 16 +
STACK CFI INIT 32420 1a4 .cfa: sp 0 + .ra: x30
STACK CFI 3242c .cfa: x29 16 + .ra: .cfa -8 + ^ x29: .cfa -16 + ^
STACK CFI INIT 325c4 d8 .cfa: sp 0 + .ra: x30
STACK CFI 325d0 .cfa: x29 16 + .ra: .cfa -8 + ^ x29: .cfa -16 + ^
STACK CFI INIT 3269c e8 .cfa: sp 0 + .ra: x30
STACK CFI 326a8 .cfa: x29 16 + .ra: .cfa -8 + ^ x29: .cfa -16 + ^
STACK CFI INIT 32784 38 .cfa: sp 0 + .ra: x30
STACK CFI 32790 .cfa: x29 16 + .ra: .cfa -8 + ^ x29: .cfa -16 + ^
STACK CFI INIT 327bc 24 .cfa: sp 0 + .ra: x30
STACK CFI 327c8 .cfa: x29 16 + .ra: .cfa -8 + ^ x29: .cfa -16 + ^
STACK CFI INIT 327e0 3c .cfa: sp 0 + .ra: x30
STACK CFI 327ec .cfa: x29 16 + .ra: .cfa -8 + ^ x29: .cfa -16 + ^
STACK CFI INIT 3281c 1c .cfa: sp 0 + .ra: x30
STACK CFI 32820 .cfa: sp 16 +
STACK CFI INIT 32838 d8 .cfa: sp 0 + .ra: x30
STACK CFI 32844 .cfa: x29 16 + .ra: .cfa -8 + ^ x29: .cfa -16 + ^
STACK CFI INIT 32910 288 .cfa: sp 0 + .ra: x30
STACK CFI 3291c .cfa: x29 16 + .ra: .cfa -8 + ^ x29: .cfa -16 + ^
STACK CFI INIT 32b98 28 .cfa: sp 0 + .ra: x30
STACK CFI 32ba4 .cfa: x29 16 + .ra: .cfa -8 + ^ x29: .cfa -16 + ^
STACK CFI INIT 32bc0 a4 .cfa: sp 0 + .ra: x30
STACK CFI 32bcc .cfa: x29 16 + .ra: .cfa -8 + ^ x29: .cfa -16 + ^
STACK CFI INIT 32c64 1e4 .cfa: sp 0 + .ra: x30
STACK CFI 32c74 .cfa: x29 16 + .ra: .cfa -8 + ^ x28: .cfa -32 + ^ x29: .cfa -16 + ^
STACK CFI INIT 32e48 a4 .cfa: sp 0 + .ra: x30
STACK CFI 32e54 .cfa: x29 16 + .ra: .cfa -8 + ^ x29: .cfa -16 + ^
STACK CFI INIT 32eec c0 .cfa: sp 0 + .ra: x30
STACK CFI 32ef8 .cfa: x29 16 + .ra: .cfa -8 + ^ x29: .cfa -16 + ^
STACK CFI INIT 32fac a4 .cfa: sp 0 + .ra: x30
STACK CFI 32fb8 .cfa: x29 16 + .ra: .cfa -8 + ^ x29: .cfa -16 + ^
STACK CFI INIT 33050 1b0 .cfa: sp 0 + .ra: x30
STACK CFI 3305c .cfa: x29 16 + .ra: .cfa -8 + ^ x29: .cfa -16 + ^
STACK CFI INIT 33200 c0 .cfa: sp 0 + .ra: x30
STACK CFI 33210 .cfa: x29 16 + .ra: .cfa -8 + ^ x28: .cfa -32 + ^ x29: .cfa -16 + ^
STACK CFI INIT 332c0 1c4 .cfa: sp 0 + .ra: x30
STACK CFI 332cc .cfa: x29 16 + .ra: .cfa -8 + ^ x29: .cfa -16 + ^
STACK CFI INIT 33484 18 .cfa: sp 0 + .ra: x30
STACK CFI 33488 .cfa: sp 16 +
STACK CFI INIT 3349c 34 .cfa: sp 0 + .ra: x30
STACK CFI 334a8 .cfa: x29 16 + .ra: .cfa -8 + ^ x29: .cfa -16 + ^
STACK CFI INIT 334d0 44 .cfa: sp 0 + .ra: x30
STACK CFI 334dc .cfa: x29 16 + .ra: .cfa -8 + ^ x29: .cfa -16 + ^
STACK CFI INIT 33514 c4 .cfa: sp 0 + .ra: x30
STACK CFI 33520 .cfa: x29 16 + .ra: .cfa -8 + ^ x29: .cfa -16 + ^
STACK CFI INIT 335d8 2c .cfa: sp 0 + .ra: x30
STACK CFI 335e4 .cfa: x29 16 + .ra: .cfa -8 + ^ x29: .cfa -16 + ^
STACK CFI INIT 33604 c4 .cfa: sp 0 + .ra: x30
STACK CFI 33610 .cfa: x29 16 + .ra: .cfa -8 + ^ x29: .cfa -16 + ^
STACK CFI INIT 336c8 18 .cfa: sp 0 + .ra: x30
STACK CFI 336cc .cfa: sp 16 +
STACK CFI INIT 336e0 c4 .cfa: sp 0 + .ra: x30
STACK CFI 336ec .cfa: x29 16 + .ra: .cfa -8 + ^ x29: .cfa -16 + ^
STACK CFI INIT 337a4 18 .cfa: sp 0 + .ra: x30
STACK CFI 337a8 .cfa: sp 16 +
STACK CFI INIT 337bc 80 .cfa: sp 0 + .ra: x30
STACK CFI 337c8 .cfa: x29 16 + .ra: .cfa -8 + ^ x29: .cfa -16 + ^
STACK CFI INIT 3383c 1c .cfa: sp 0 + .ra: x30
STACK CFI 33840 .cfa: sp 16 +
STACK CFI INIT 33858 28 .cfa: sp 0 + .ra: x30
STACK CFI 3385c .cfa: sp 16 +
STACK CFI INIT 33880 30 .cfa: sp 0 + .ra: x30
STACK CFI 33884 .cfa: sp 16 +
STACK CFI INIT 338b0 14c .cfa: sp 0 + .ra: x30
STACK CFI 338bc .cfa: x29 16 + .ra: .cfa -8 + ^ x29: .cfa -16 + ^
STACK CFI INIT 339fc 354 .cfa: sp 0 + .ra: x30
STACK CFI 33a0c .cfa: x29 16 + .ra: .cfa -8 + ^ x28: .cfa -32 + ^ x29: .cfa -16 + ^
STACK CFI INIT 33d50 38 .cfa: sp 0 + .ra: x30
STACK CFI 33d5c .cfa: x29 16 + .ra: .cfa -8 + ^ x29: .cfa -16 + ^
STACK CFI INIT 33d88 48 .cfa: sp 0 + .ra: x30
STACK CFI 33d94 .cfa: x29 16 + .ra: .cfa -8 + ^ x29: .cfa -16 + ^
STACK CFI INIT 33dd0 38 .cfa: sp 0 + .ra: x30
STACK CFI 33ddc .cfa: x29 16 + .ra: .cfa -8 + ^ x29: .cfa -16 + ^
STACK CFI INIT 33e08 3c .cfa: sp 0 + .ra: x30
STACK CFI 33e14 .cfa: x29 16 + .ra: .cfa -8 + ^ x29: .cfa -16 + ^
STACK CFI INIT 33e44 28 .cfa: sp 0 + .ra: x30
STACK CFI 33e48 .cfa: sp 16 +
STACK CFI INIT 33e6c bc .cfa: sp 0 + .ra: x30
STACK CFI 33e78 .cfa: x29 16 + .ra: .cfa -8 + ^ x29: .cfa -16 + ^
STACK CFI INIT 33f28 2dc .cfa: sp 0 + .ra: x30
STACK CFI 33f38 .cfa: x29 16 + .ra: .cfa -8 + ^ x28: .cfa -32 + ^ x29: .cfa -16 + ^
STACK CFI INIT 34204 3c .cfa: sp 0 + .ra: x30
STACK CFI 34210 .cfa: x29 16 + .ra: .cfa -8 + ^ x29: .cfa -16 + ^
STACK CFI INIT 34240 40 .cfa: sp 0 + .ra: x30
STACK CFI 3424c .cfa: x29 16 + .ra: .cfa -8 + ^ x29: .cfa -16 + ^
STACK CFI INIT 34280 24 .cfa: sp 0 + .ra: x30
STACK CFI 34284 .cfa: sp 16 +
STACK CFI INIT 342a4 20 .cfa: sp 0 + .ra: x30
STACK CFI 342a8 .cfa: sp 16 +
STACK CFI INIT 342c4 c4 .cfa: sp 0 + .ra: x30
STACK CFI 342d0 .cfa: x29 16 + .ra: .cfa -8 + ^ x29: .cfa -16 + ^
STACK CFI INIT 34388 c4 .cfa: sp 0 + .ra: x30
STACK CFI 34394 .cfa: x29 16 + .ra: .cfa -8 + ^ x29: .cfa -16 + ^
STACK CFI INIT 3444c 24 .cfa: sp 0 + .ra: x30
STACK CFI 34458 .cfa: x29 16 + .ra: .cfa -8 + ^ x29: .cfa -16 + ^
STACK CFI INIT 34470 54 .cfa: sp 0 + .ra: x30
STACK CFI 3447c .cfa: x29 16 + .ra: .cfa -8 + ^ x29: .cfa -16 + ^
STACK CFI INIT 344c4 24 .cfa: sp 0 + .ra: x30
STACK CFI 344d0 .cfa: x29 16 + .ra: .cfa -8 + ^ x29: .cfa -16 + ^
STACK CFI INIT 344e8 f8 .cfa: sp 0 + .ra: x30
STACK CFI 344f4 .cfa: x29 16 + .ra: .cfa -8 + ^ x29: .cfa -16 + ^
STACK CFI INIT 345e0 24 .cfa: sp 0 + .ra: x30
STACK CFI 345ec .cfa: x29 16 + .ra: .cfa -8 + ^ x29: .cfa -16 + ^
STACK CFI INIT 34604 10 .cfa: sp 0 + .ra: x30
STACK CFI 34608 .cfa: sp 16 +
STACK CFI INIT 34614 34 .cfa: sp 0 + .ra: x30
STACK CFI 34620 .cfa: x29 16 + .ra: .cfa -8 + ^ x29: .cfa -16 + ^
STACK CFI INIT 34648 84 .cfa: sp 0 + .ra: x30
STACK CFI 34654 .cfa: x29 16 + .ra: .cfa -8 + ^ x29: .cfa -16 + ^
STACK CFI INIT 346cc 84 .cfa: sp 0 + .ra: x30
STACK CFI 346d8 .cfa: x29 16 + .ra: .cfa -8 + ^ x29: .cfa -16 + ^
STACK CFI INIT 34750 48 .cfa: sp 0 + .ra: x30
STACK CFI 3475c .cfa: x29 16 + .ra: .cfa -8 + ^ x29: .cfa -16 + ^
STACK CFI INIT 34798 14 .cfa: sp 0 + .ra: x30
STACK CFI 3479c .cfa: sp 16 +
STACK CFI INIT 347ac 54 .cfa: sp 0 + .ra: x30
STACK CFI 347b8 .cfa: x29 16 + .ra: .cfa -8 + ^ x29: .cfa -16 + ^
STACK CFI INIT 34800 24 .cfa: sp 0 + .ra: x30
STACK CFI 3480c .cfa: x29 16 + .ra: .cfa -8 + ^ x29: .cfa -16 + ^
STACK CFI INIT 34824 2c .cfa: sp 0 + .ra: x30
STACK CFI 34830 .cfa: x29 16 + .ra: .cfa -8 + ^ x29: .cfa -16 + ^
STACK CFI INIT 34850 ec .cfa: sp 0 + .ra: x30
STACK CFI 3485c .cfa: x29 16 + .ra: .cfa -8 + ^ x29: .cfa -16 + ^
STACK CFI INIT 3493c f8 .cfa: sp 0 + .ra: x30
STACK CFI 34948 .cfa: x29 16 + .ra: .cfa -8 + ^ x29: .cfa -16 + ^
STACK CFI INIT 34a34 8c .cfa: sp 0 + .ra: x30
STACK CFI 34a40 .cfa: x29 16 + .ra: .cfa -8 + ^ x29: .cfa -16 + ^
STACK CFI INIT 34ac0 38 .cfa: sp 0 + .ra: x30
STACK CFI 34acc .cfa: x29 16 + .ra: .cfa -8 + ^ x29: .cfa -16 + ^
STACK CFI INIT 34af8 2c .cfa: sp 0 + .ra: x30
STACK CFI 34b04 .cfa: x29 16 + .ra: .cfa -8 + ^ x29: .cfa -16 + ^
STACK CFI INIT 34b24 24 .cfa: sp 0 + .ra: x30
STACK CFI 34b30 .cfa: x29 16 + .ra: .cfa -8 + ^ x29: .cfa -16 + ^
STACK CFI INIT 34b48 14 .cfa: sp 0 + .ra: x30
STACK CFI 34b4c .cfa: sp 16 +
STACK CFI INIT 34b5c 2c .cfa: sp 0 + .ra: x30
STACK CFI 34b68 .cfa: x29 16 + .ra: .cfa -8 + ^ x29: .cfa -16 + ^
STACK CFI INIT 34b88 14 .cfa: sp 0 + .ra: x30
STACK CFI 34b8c .cfa: sp 16 +
STACK CFI INIT 34b9c 84 .cfa: sp 0 + .ra: x30
STACK CFI 34ba8 .cfa: x29 16 + .ra: .cfa -8 + ^ x29: .cfa -16 + ^
STACK CFI INIT 34c20 34 .cfa: sp 0 + .ra: x30
STACK CFI 34c2c .cfa: x29 16 + .ra: .cfa -8 + ^ x29: .cfa -16 + ^
STACK CFI INIT 34c54 2c .cfa: sp 0 + .ra: x30
STACK CFI 34c60 .cfa: x29 16 + .ra: .cfa -8 + ^ x29: .cfa -16 + ^
STACK CFI INIT 34c80 2c .cfa: sp 0 + .ra: x30
STACK CFI 34c8c .cfa: x29 16 + .ra: .cfa -8 + ^ x29: .cfa -16 + ^
STACK CFI INIT 34cac 14 .cfa: sp 0 + .ra: x30
STACK CFI 34cb0 .cfa: sp 16 +
STACK CFI INIT 34cc0 3c .cfa: sp 0 + .ra: x30
STACK CFI 34ccc .cfa: x29 16 + .ra: .cfa -8 + ^ x29: .cfa -16 + ^
STACK CFI INIT 34cfc 7c .cfa: sp 0 + .ra: x30
STACK CFI 34d08 .cfa: x29 16 + .ra: .cfa -8 + ^ x29: .cfa -16 + ^
STACK CFI INIT 34d78 2c .cfa: sp 0 + .ra: x30
STACK CFI 34d84 .cfa: x29 16 + .ra: .cfa -8 + ^ x29: .cfa -16 + ^
STACK CFI INIT 34da4 18 .cfa: sp 0 + .ra: x30
STACK CFI 34da8 .cfa: sp 16 +
STACK CFI INIT 34dbc 24 .cfa: sp 0 + .ra: x30
STACK CFI 34dc8 .cfa: x29 16 + .ra: .cfa -8 + ^ x29: .cfa -16 + ^
STACK CFI INIT 34de0 14 .cfa: sp 0 + .ra: x30
STACK CFI 34de4 .cfa: sp 16 +
STACK CFI INIT 34df4 b4 .cfa: sp 0 + .ra: x30
STACK CFI 34e00 .cfa: x29 16 + .ra: .cfa -8 + ^ x29: .cfa -16 + ^
STACK CFI INIT 34ea8 b0 .cfa: sp 0 + .ra: x30
STACK CFI 34eb4 .cfa: x29 16 + .ra: .cfa -8 + ^ x29: .cfa -16 + ^
STACK CFI INIT 34f58 88 .cfa: sp 0 + .ra: x30
STACK CFI 34f64 .cfa: x29 16 + .ra: .cfa -8 + ^ x29: .cfa -16 + ^
STACK CFI INIT 34fe0 2c .cfa: sp 0 + .ra: x30
STACK CFI 34fec .cfa: x29 16 + .ra: .cfa -8 + ^ x29: .cfa -16 + ^
STACK CFI INIT 3500c ac .cfa: sp 0 + .ra: x30
STACK CFI 35018 .cfa: x29 16 + .ra: .cfa -8 + ^ x29: .cfa -16 + ^
STACK CFI INIT 350b8 10 .cfa: sp 0 + .ra: x30
STACK CFI 350bc .cfa: sp 16 +
STACK CFI INIT 350c8 20 .cfa: sp 0 + .ra: x30
STACK CFI 350cc .cfa: sp 48 +
STACK CFI INIT 350e8 28 .cfa: sp 0 + .ra: x30
STACK CFI 350f4 .cfa: x29 16 + .ra: .cfa -8 + ^ x29: .cfa -16 + ^
STACK CFI INIT 35110 14 .cfa: sp 0 + .ra: x30
STACK CFI 35114 .cfa: sp 16 +
STACK CFI INIT 35124 64 .cfa: sp 0 + .ra: x30
STACK CFI 35130 .cfa: x29 16 + .ra: .cfa -8 + ^ x29: .cfa -16 + ^
STACK CFI INIT 35188 24 .cfa: sp 0 + .ra: x30
STACK CFI 35194 .cfa: x29 16 + .ra: .cfa -8 + ^ x29: .cfa -16 + ^
STACK CFI INIT 351ac 60 .cfa: sp 0 + .ra: x30
STACK CFI 351b8 .cfa: x29 16 + .ra: .cfa -8 + ^ x29: .cfa -16 + ^
STACK CFI INIT 3520c 14 .cfa: sp 0 + .ra: x30
STACK CFI 35210 .cfa: sp 16 +
STACK CFI INIT 35220 44 .cfa: sp 0 + .ra: x30
STACK CFI 3522c .cfa: x29 16 + .ra: .cfa -8 + ^ x29: .cfa -16 + ^
STACK CFI INIT 35264 14 .cfa: sp 0 + .ra: x30
STACK CFI 35268 .cfa: sp 16 +
STACK CFI INIT 35278 14 .cfa: sp 0 + .ra: x30
STACK CFI 3527c .cfa: sp 16 +
STACK CFI INIT 3528c 24 .cfa: sp 0 + .ra: x30
STACK CFI 35298 .cfa: x29 16 + .ra: .cfa -8 + ^ x29: .cfa -16 + ^
STACK CFI INIT 352b0 28 .cfa: sp 0 + .ra: x30
STACK CFI 352bc .cfa: x29 16 + .ra: .cfa -8 + ^ x29: .cfa -16 + ^
STACK CFI INIT 352d8 3c .cfa: sp 0 + .ra: x30
STACK CFI 352e4 .cfa: x29 16 + .ra: .cfa -8 + ^ x29: .cfa -16 + ^
STACK CFI INIT 35314 38 .cfa: sp 0 + .ra: x30
STACK CFI 35320 .cfa: x29 16 + .ra: .cfa -8 + ^ x29: .cfa -16 + ^
STACK CFI INIT 3534c 34 .cfa: sp 0 + .ra: x30
STACK CFI 35358 .cfa: x29 16 + .ra: .cfa -8 + ^ x29: .cfa -16 + ^
STACK CFI INIT 35380 9c .cfa: sp 0 + .ra: x30
STACK CFI 3538c .cfa: x29 16 + .ra: .cfa -8 + ^ x29: .cfa -16 + ^
STACK CFI INIT 3541c 34 .cfa: sp 0 + .ra: x30
STACK CFI 35428 .cfa: x29 16 + .ra: .cfa -8 + ^ x29: .cfa -16 + ^
STACK CFI INIT 35450 34 .cfa: sp 0 + .ra: x30
STACK CFI 3545c .cfa: x29 16 + .ra: .cfa -8 + ^ x29: .cfa -16 + ^
STACK CFI INIT 35484 14 .cfa: sp 0 + .ra: x30
STACK CFI 35488 .cfa: sp 16 +
STACK CFI INIT 35498 18 .cfa: sp 0 + .ra: x30
STACK CFI 3549c .cfa: sp 32 +
STACK CFI INIT 354b0 2c .cfa: sp 0 + .ra: x30
STACK CFI 354bc .cfa: x29 16 + .ra: .cfa -8 + ^ x29: .cfa -16 + ^
STACK CFI INIT 354dc 24 .cfa: sp 0 + .ra: x30
STACK CFI 354e8 .cfa: x29 16 + .ra: .cfa -8 + ^ x29: .cfa -16 + ^
STACK CFI INIT 35500 50 .cfa: sp 0 + .ra: x30
STACK CFI 3550c .cfa: x29 16 + .ra: .cfa -8 + ^ x29: .cfa -16 + ^
STACK CFI INIT 35550 84 .cfa: sp 0 + .ra: x30
STACK CFI 3555c .cfa: x29 16 + .ra: .cfa -8 + ^ x29: .cfa -16 + ^
STACK CFI INIT 355d4 2c .cfa: sp 0 + .ra: x30
STACK CFI 355e0 .cfa: x29 16 + .ra: .cfa -8 + ^ x29: .cfa -16 + ^
STACK CFI INIT 35600 a0 .cfa: sp 0 + .ra: x30
STACK CFI 3560c .cfa: x29 16 + .ra: .cfa -8 + ^ x29: .cfa -16 + ^
STACK CFI INIT 356a0 40 .cfa: sp 0 + .ra: x30
STACK CFI 356ac .cfa: x29 16 + .ra: .cfa -8 + ^ x29: .cfa -16 + ^
STACK CFI INIT 356e0 40 .cfa: sp 0 + .ra: x30
STACK CFI 356ec .cfa: x29 16 + .ra: .cfa -8 + ^ x29: .cfa -16 + ^
STACK CFI INIT 35720 34 .cfa: sp 0 + .ra: x30
STACK CFI 3572c .cfa: x29 16 + .ra: .cfa -8 + ^ x29: .cfa -16 + ^
STACK CFI INIT 35754 34 .cfa: sp 0 + .ra: x30
STACK CFI 35760 .cfa: x29 16 + .ra: .cfa -8 + ^ x29: .cfa -16 + ^
STACK CFI INIT 35788 a4 .cfa: sp 0 + .ra: x30
STACK CFI 35794 .cfa: x29 16 + .ra: .cfa -8 + ^ x29: .cfa -16 + ^
STACK CFI INIT 3582c 18 .cfa: sp 0 + .ra: x30
STACK CFI 35830 .cfa: sp 32 +
STACK CFI INIT 35844 f4 .cfa: sp 0 + .ra: x30
STACK CFI 35850 .cfa: x29 16 + .ra: .cfa -8 + ^ x29: .cfa -16 + ^
STACK CFI INIT 35938 10 .cfa: sp 0 + .ra: x30
STACK CFI 3593c .cfa: sp 16 +
STACK CFI INIT 35948 64 .cfa: sp 0 + .ra: x30
STACK CFI 35954 .cfa: x29 16 + .ra: .cfa -8 + ^ x29: .cfa -16 + ^
STACK CFI INIT 359ac e4 .cfa: sp 0 + .ra: x30
STACK CFI 359b8 .cfa: x29 16 + .ra: .cfa -8 + ^ x29: .cfa -16 + ^
STACK CFI INIT 35a90 ac .cfa: sp 0 + .ra: x30
STACK CFI 35a9c .cfa: x29 16 + .ra: .cfa -8 + ^ x29: .cfa -16 + ^
STACK CFI INIT 35b3c 12c .cfa: sp 0 + .ra: x30
STACK CFI 35b48 .cfa: x29 16 + .ra: .cfa -8 + ^ x29: .cfa -16 + ^
STACK CFI INIT 35c68 68 .cfa: sp 0 + .ra: x30
STACK CFI 35c74 .cfa: x29 16 + .ra: .cfa -8 + ^ x29: .cfa -16 + ^
STACK CFI INIT 35cd0 18 .cfa: sp 0 + .ra: x30
STACK CFI 35cd4 .cfa: sp 16 +
STACK CFI INIT 35ce8 18 .cfa: sp 0 + .ra: x30
STACK CFI 35cec .cfa: sp 16 +
STACK CFI INIT 35d00 28 .cfa: sp 0 + .ra: x30
STACK CFI 35d04 .cfa: sp 32 +
STACK CFI INIT 35d28 30 .cfa: sp 0 + .ra: x30
STACK CFI 35d2c .cfa: sp 32 +
STACK CFI INIT 35d58 94 .cfa: sp 0 + .ra: x30
STACK CFI 35d64 .cfa: x29 16 + .ra: .cfa -8 + ^ x29: .cfa -16 + ^
STACK CFI INIT 35dec 64 .cfa: sp 0 + .ra: x30
STACK CFI 35df8 .cfa: x29 16 + .ra: .cfa -8 + ^ x29: .cfa -16 + ^
STACK CFI INIT 35e50 60 .cfa: sp 0 + .ra: x30
STACK CFI 35e5c .cfa: x29 16 + .ra: .cfa -8 + ^ x29: .cfa -16 + ^
STACK CFI INIT 35eb0 14 .cfa: sp 0 + .ra: x30
STACK CFI 35eb4 .cfa: sp 16 +
STACK CFI INIT 35ec4 44 .cfa: sp 0 + .ra: x30
STACK CFI 35ed0 .cfa: x29 16 + .ra: .cfa -8 + ^ x29: .cfa -16 + ^
STACK CFI INIT 35f08 64 .cfa: sp 0 + .ra: x30
STACK CFI 35f14 .cfa: x29 16 + .ra: .cfa -8 + ^ x29: .cfa -16 + ^
STACK CFI INIT 35f6c 7c .cfa: sp 0 + .ra: x30
STACK CFI 35f74 .cfa: sp 48 + .ra: .cfa -16 + ^
STACK CFI INIT 35fe8 14 .cfa: sp 0 + .ra: x30
STACK CFI 35fec .cfa: sp 16 +
STACK CFI INIT 35ffc 70 .cfa: sp 0 + .ra: x30
STACK CFI 36004 .cfa: sp 48 + .ra: .cfa -16 + ^
STACK CFI INIT 3606c 14 .cfa: sp 0 + .ra: x30
STACK CFI 36070 .cfa: sp 16 +
STACK CFI INIT 36080 8c .cfa: sp 0 + .ra: x30
STACK CFI 3608c .cfa: x29 16 + .ra: .cfa -8 + ^ x29: .cfa -16 + ^
STACK CFI INIT 3610c 2c .cfa: sp 0 + .ra: x30
STACK CFI 36118 .cfa: x29 16 + .ra: .cfa -8 + ^ x29: .cfa -16 + ^
STACK CFI INIT 36138 2c .cfa: sp 0 + .ra: x30
STACK CFI 36144 .cfa: x29 16 + .ra: .cfa -8 + ^ x29: .cfa -16 + ^
STACK CFI INIT 36164 2c .cfa: sp 0 + .ra: x30
STACK CFI 36170 .cfa: x29 16 + .ra: .cfa -8 + ^ x29: .cfa -16 + ^
STACK CFI INIT 36190 18 .cfa: sp 0 + .ra: x30
STACK CFI 36194 .cfa: sp 16 +
STACK CFI INIT 361a8 2c .cfa: sp 0 + .ra: x30
STACK CFI 361b4 .cfa: x29 16 + .ra: .cfa -8 + ^ x29: .cfa -16 + ^
STACK CFI INIT 361d4 14 .cfa: sp 0 + .ra: x30
STACK CFI 361d8 .cfa: sp 16 +
STACK CFI INIT 361e8 a4 .cfa: sp 0 + .ra: x30
STACK CFI 361f4 .cfa: x29 16 + .ra: .cfa -8 + ^ x29: .cfa -16 + ^
STACK CFI INIT 3628c 20 .cfa: sp 0 + .ra: x30
STACK CFI 36290 .cfa: sp 16 +
STACK CFI INIT 362ac 68 .cfa: sp 0 + .ra: x30
STACK CFI 362b8 .cfa: x29 16 + .ra: .cfa -8 + ^ x29: .cfa -16 + ^
STACK CFI INIT 36314 20 .cfa: sp 0 + .ra: x30
STACK CFI 36318 .cfa: sp 16 +
STACK CFI INIT 36334 38 .cfa: sp 0 + .ra: x30
STACK CFI 36338 .cfa: sp 16 +
STACK CFI INIT 3636c 74 .cfa: sp 0 + .ra: x30
STACK CFI 36378 .cfa: x29 16 + .ra: .cfa -8 + ^ x29: .cfa -16 + ^
STACK CFI INIT 363e0 24 .cfa: sp 0 + .ra: x30
STACK CFI 363ec .cfa: x29 16 + .ra: .cfa -8 + ^ x29: .cfa -16 + ^
STACK CFI INIT 36404 14 .cfa: sp 0 + .ra: x30
STACK CFI 36408 .cfa: sp 16 +
STACK CFI INIT 36418 214 .cfa: sp 0 + .ra: x30
STACK CFI 36424 .cfa: x29 16 + .ra: .cfa -8 + ^ x29: .cfa -16 + ^
STACK CFI INIT 3662c b4 .cfa: sp 0 + .ra: x30
STACK CFI 36638 .cfa: x29 16 + .ra: .cfa -8 + ^ x29: .cfa -16 + ^
STACK CFI INIT 366e0 b4 .cfa: sp 0 + .ra: x30
STACK CFI 366ec .cfa: x29 16 + .ra: .cfa -8 + ^ x29: .cfa -16 + ^
STACK CFI INIT 36794 b4 .cfa: sp 0 + .ra: x30
STACK CFI 367a0 .cfa: x29 16 + .ra: .cfa -8 + ^ x29: .cfa -16 + ^
STACK CFI INIT 36848 9c .cfa: sp 0 + .ra: x30
STACK CFI 36854 .cfa: x29 16 + .ra: .cfa -8 + ^ x29: .cfa -16 + ^
STACK CFI INIT 368e4 24 .cfa: sp 0 + .ra: x30
STACK CFI 368f0 .cfa: x29 16 + .ra: .cfa -8 + ^ x29: .cfa -16 + ^
STACK CFI INIT 36908 24 .cfa: sp 0 + .ra: x30
STACK CFI 36914 .cfa: x29 16 + .ra: .cfa -8 + ^ x29: .cfa -16 + ^
STACK CFI INIT 3692c 24 .cfa: sp 0 + .ra: x30
STACK CFI 36938 .cfa: x29 16 + .ra: .cfa -8 + ^ x29: .cfa -16 + ^
STACK CFI INIT 36950 90 .cfa: sp 0 + .ra: x30
STACK CFI 3695c .cfa: x29 16 + .ra: .cfa -8 + ^ x29: .cfa -16 + ^
STACK CFI INIT 369e0 c .cfa: sp 0 + .ra: x30
STACK CFI 369e4 .cfa: sp 16 +
STACK CFI INIT 369ec 94 .cfa: sp 0 + .ra: x30
STACK CFI 369f8 .cfa: x29 16 + .ra: .cfa -8 + ^ x29: .cfa -16 + ^
STACK CFI INIT 36a80 18c .cfa: sp 0 + .ra: x30
STACK CFI 36a90 .cfa: x29 16 + .ra: .cfa -8 + ^ x28: .cfa -32 + ^ x29: .cfa -16 + ^
STACK CFI INIT 36c0c 3c .cfa: sp 0 + .ra: x30
STACK CFI 36c18 .cfa: x29 16 + .ra: .cfa -8 + ^ x29: .cfa -16 + ^
STACK CFI INIT 36c48 154 .cfa: sp 0 + .ra: x30
STACK CFI 36c54 .cfa: x29 16 + .ra: .cfa -8 + ^ x29: .cfa -16 + ^
STACK CFI INIT 36d9c 360 .cfa: sp 0 + .ra: x30
STACK CFI 36db0 .cfa: x29 16 + .ra: .cfa -8 + ^ x28: .cfa -32 + ^ x29: .cfa -16 + ^
STACK CFI INIT 370fc 60 .cfa: sp 0 + .ra: x30
STACK CFI 37108 .cfa: x29 16 + .ra: .cfa -8 + ^ x29: .cfa -16 + ^
STACK CFI INIT 3715c 78 .cfa: sp 0 + .ra: x30
STACK CFI 37168 .cfa: x29 16 + .ra: .cfa -8 + ^ x29: .cfa -16 + ^
STACK CFI INIT 371d4 b4 .cfa: sp 0 + .ra: x30
STACK CFI 371e0 .cfa: x29 16 + .ra: .cfa -8 + ^ x29: .cfa -16 + ^
STACK CFI INIT 37288 2e4 .cfa: sp 0 + .ra: x30
STACK CFI 3729c .cfa: x29 16 + .ra: .cfa -8 + ^ x28: .cfa -32 + ^ x29: .cfa -16 + ^
STACK CFI INIT 3756c 24 .cfa: sp 0 + .ra: x30
STACK CFI 37578 .cfa: x29 16 + .ra: .cfa -8 + ^ x29: .cfa -16 + ^
STACK CFI INIT 37590 24 .cfa: sp 0 + .ra: x30
STACK CFI 3759c .cfa: x29 16 + .ra: .cfa -8 + ^ x29: .cfa -16 + ^
STACK CFI INIT 375b4 30 .cfa: sp 0 + .ra: x30
STACK CFI 375b8 .cfa: sp 16 +
STACK CFI INIT 375e4 5c .cfa: sp 0 + .ra: x30
STACK CFI 375f0 .cfa: x29 16 + .ra: .cfa -8 + ^ x29: .cfa -16 + ^
STACK CFI INIT 37640 20 .cfa: sp 0 + .ra: x30
STACK CFI 37644 .cfa: sp 16 +
STACK CFI INIT 37660 20 .cfa: sp 0 + .ra: x30
STACK CFI 37664 .cfa: sp 16 +
STACK CFI INIT 37680 20 .cfa: sp 0 + .ra: x30
STACK CFI 37684 .cfa: sp 16 +
STACK CFI INIT 376a0 66c .cfa: sp 0 + .ra: x30
STACK CFI 376bc .cfa: sp 400 + .ra: .cfa -8 + ^ x19: .cfa -24 + ^ x20: .cfa -32 + ^ x21: .cfa -40 + ^ x22: .cfa -48 + ^ x23: .cfa -56 + ^ x24: .cfa -64 + ^ x25: .cfa -72 + ^ x26: .cfa -80 + ^ x27: .cfa -88 + ^ x28: .cfa -96 + ^ x29: .cfa -16 + ^
STACK CFI INIT 37d0c 190 .cfa: sp 0 + .ra: x30
STACK CFI 37d18 .cfa: x29 16 + .ra: .cfa -8 + ^ x29: .cfa -16 + ^
STACK CFI INIT 37e9c 190 .cfa: sp 0 + .ra: x30
STACK CFI 37eb0 .cfa: x29 16 + .ra: .cfa -8 + ^ x28: .cfa -32 + ^ x29: .cfa -16 + ^
STACK CFI INIT 3802c 3c .cfa: sp 0 + .ra: x30
STACK CFI 38038 .cfa: x29 16 + .ra: .cfa -8 + ^ x29: .cfa -16 + ^
STACK CFI INIT 38068 a8 .cfa: sp 0 + .ra: x30
STACK CFI 38074 .cfa: x29 16 + .ra: .cfa -8 + ^ x29: .cfa -16 + ^
STACK CFI INIT 38110 30 .cfa: sp 0 + .ra: x30
STACK CFI 38114 .cfa: sp 16 +
STACK CFI INIT 38140 88 .cfa: sp 0 + .ra: x30
STACK CFI 3814c .cfa: x29 16 + .ra: .cfa -8 + ^ x29: .cfa -16 + ^
STACK CFI INIT 381c8 5fc .cfa: sp 0 + .ra: x30
STACK CFI 381d8 .cfa: x29 16 + .ra: .cfa -8 + ^ x28: .cfa -32 + ^ x29: .cfa -16 + ^
STACK CFI INIT 387c4 2c .cfa: sp 0 + .ra: x30
STACK CFI 387d0 .cfa: x29 16 + .ra: .cfa -8 + ^ x29: .cfa -16 + ^
STACK CFI INIT 387f0 30 .cfa: sp 0 + .ra: x30
STACK CFI 387f4 .cfa: sp 16 +
STACK CFI INIT 38820 2f8 .cfa: sp 0 + .ra: x30
STACK CFI 3882c .cfa: x29 16 + .ra: .cfa -8 + ^ x29: .cfa -16 + ^
STACK CFI INIT 38b18 34 .cfa: sp 0 + .ra: x30
STACK CFI 38b1c .cfa: sp 16 +
STACK CFI INIT 38b4c 20 .cfa: sp 0 + .ra: x30
STACK CFI 38b50 .cfa: sp 16 +
STACK CFI INIT 38b6c d0 .cfa: sp 0 + .ra: x30
STACK CFI 38b78 .cfa: x29 16 + .ra: .cfa -8 + ^ x29: .cfa -16 + ^
STACK CFI INIT 38c3c fc .cfa: sp 0 + .ra: x30
STACK CFI 38c48 .cfa: x29 16 + .ra: .cfa -8 + ^ x29: .cfa -16 + ^
STACK CFI INIT 38d38 90 .cfa: sp 0 + .ra: x30
STACK CFI 38d44 .cfa: x29 16 + .ra: .cfa -8 + ^ x29: .cfa -16 + ^
STACK CFI INIT 38dc8 18c .cfa: sp 0 + .ra: x30
STACK CFI 38dd4 .cfa: x29 16 + .ra: .cfa -8 + ^ x29: .cfa -16 + ^
STACK CFI INIT 38f54 144 .cfa: sp 0 + .ra: x30
STACK CFI 38f60 .cfa: x29 16 + .ra: .cfa -8 + ^ x29: .cfa -16 + ^
STACK CFI INIT 39098 e8 .cfa: sp 0 + .ra: x30
STACK CFI 390a4 .cfa: x29 16 + .ra: .cfa -8 + ^ x29: .cfa -16 + ^
STACK CFI INIT 39180 118 .cfa: sp 0 + .ra: x30
STACK CFI 3918c .cfa: x29 16 + .ra: .cfa -8 + ^ x29: .cfa -16 + ^
STACK CFI INIT 39298 11c .cfa: sp 0 + .ra: x30
STACK CFI 392a4 .cfa: x29 16 + .ra: .cfa -8 + ^ x29: .cfa -16 + ^
STACK CFI INIT 393b4 3dc .cfa: sp 0 + .ra: x30
STACK CFI 393c4 .cfa: x29 16 + .ra: .cfa -8 + ^ x28: .cfa -32 + ^ x29: .cfa -16 + ^
STACK CFI INIT 39790 12c .cfa: sp 0 + .ra: x30
STACK CFI 3979c .cfa: x29 16 + .ra: .cfa -8 + ^ x29: .cfa -16 + ^
STACK CFI INIT 398bc 70 .cfa: sp 0 + .ra: x30
STACK CFI 398c0 .cfa: sp 32 +
STACK CFI INIT 3992c 130 .cfa: sp 0 + .ra: x30
STACK CFI 39938 .cfa: x29 16 + .ra: .cfa -8 + ^ x29: .cfa -16 + ^
STACK CFI INIT 39a5c 3c .cfa: sp 0 + .ra: x30
STACK CFI 39a68 .cfa: x29 16 + .ra: .cfa -8 + ^ x29: .cfa -16 + ^
STACK CFI INIT 39a98 38 .cfa: sp 0 + .ra: x30
STACK CFI 39aa4 .cfa: x29 16 + .ra: .cfa -8 + ^ x29: .cfa -16 + ^
STACK CFI INIT 39ad0 50 .cfa: sp 0 + .ra: x30
STACK CFI 39adc .cfa: x29 16 + .ra: .cfa -8 + ^ x29: .cfa -16 + ^
STACK CFI INIT 39b20 d4 .cfa: sp 0 + .ra: x30
STACK CFI 39b2c .cfa: x29 16 + .ra: .cfa -8 + ^ x29: .cfa -16 + ^
STACK CFI INIT 39bf4 84 .cfa: sp 0 + .ra: x30
STACK CFI 39c00 .cfa: x29 16 + .ra: .cfa -8 + ^ x29: .cfa -16 + ^
STACK CFI INIT 39c78 20 .cfa: sp 0 + .ra: x30
STACK CFI 39c7c .cfa: sp 48 +
STACK CFI INIT 39c98 28 .cfa: sp 0 + .ra: x30
STACK CFI 39ca4 .cfa: x29 16 + .ra: .cfa -8 + ^ x29: .cfa -16 + ^
STACK CFI INIT 39cc0 24 .cfa: sp 0 + .ra: x30
STACK CFI 39ccc .cfa: x29 16 + .ra: .cfa -8 + ^ x29: .cfa -16 + ^
STACK CFI INIT 39ce4 28 .cfa: sp 0 + .ra: x30
STACK CFI 39ce8 .cfa: sp 16 +
STACK CFI INIT 39d0c 14 .cfa: sp 0 + .ra: x30
STACK CFI 39d10 .cfa: sp 16 +
STACK CFI INIT 39d20 48 .cfa: sp 0 + .ra: x30
STACK CFI 39d2c .cfa: x29 16 + .ra: .cfa -8 + ^ x29: .cfa -16 + ^
STACK CFI INIT 39d68 2c .cfa: sp 0 + .ra: x30
STACK CFI 39d74 .cfa: x29 16 + .ra: .cfa -8 + ^ x29: .cfa -16 + ^
STACK CFI INIT 39d94 24 .cfa: sp 0 + .ra: x30
STACK CFI 39da0 .cfa: x29 16 + .ra: .cfa -8 + ^ x29: .cfa -16 + ^
STACK CFI INIT 39db8 14 .cfa: sp 0 + .ra: x30
STACK CFI 39dbc .cfa: sp 16 +
STACK CFI INIT 39dcc 2c .cfa: sp 0 + .ra: x30
STACK CFI 39dd8 .cfa: x29 16 + .ra: .cfa -8 + ^ x29: .cfa -16 + ^
STACK CFI INIT 39df8 3c .cfa: sp 0 + .ra: x30
STACK CFI 39e04 .cfa: x29 16 + .ra: .cfa -8 + ^ x29: .cfa -16 + ^
STACK CFI INIT 39e34 2c .cfa: sp 0 + .ra: x30
STACK CFI 39e40 .cfa: x29 16 + .ra: .cfa -8 + ^ x29: .cfa -16 + ^
STACK CFI INIT 39e60 a0 .cfa: sp 0 + .ra: x30
STACK CFI 39e6c .cfa: x29 16 + .ra: .cfa -8 + ^ x29: .cfa -16 + ^
STACK CFI INIT 39f00 34 .cfa: sp 0 + .ra: x30
STACK CFI 39f0c .cfa: x29 16 + .ra: .cfa -8 + ^ x29: .cfa -16 + ^
STACK CFI INIT 39f34 34 .cfa: sp 0 + .ra: x30
STACK CFI 39f40 .cfa: x29 16 + .ra: .cfa -8 + ^ x29: .cfa -16 + ^
STACK CFI INIT 39f68 14 .cfa: sp 0 + .ra: x30
STACK CFI 39f6c .cfa: sp 16 +
STACK CFI INIT 39f7c 18 .cfa: sp 0 + .ra: x30
STACK CFI 39f80 .cfa: sp 32 +
STACK CFI INIT 39f94 2c .cfa: sp 0 + .ra: x30
STACK CFI 39fa0 .cfa: x29 16 + .ra: .cfa -8 + ^ x29: .cfa -16 + ^
STACK CFI INIT 39fc0 14 .cfa: sp 0 + .ra: x30
STACK CFI 39fc4 .cfa: sp 16 +
STACK CFI INIT 39fd4 50 .cfa: sp 0 + .ra: x30
STACK CFI 39fe0 .cfa: x29 16 + .ra: .cfa -8 + ^ x29: .cfa -16 + ^
STACK CFI INIT 3a024 d4 .cfa: sp 0 + .ra: x30
STACK CFI 3a030 .cfa: x29 16 + .ra: .cfa -8 + ^ x29: .cfa -16 + ^
STACK CFI INIT 3a0f8 84 .cfa: sp 0 + .ra: x30
STACK CFI 3a104 .cfa: x29 16 + .ra: .cfa -8 + ^ x29: .cfa -16 + ^
STACK CFI INIT 3a17c 20 .cfa: sp 0 + .ra: x30
STACK CFI 3a180 .cfa: sp 48 +
STACK CFI INIT 3a19c 28 .cfa: sp 0 + .ra: x30
STACK CFI 3a1a8 .cfa: x29 16 + .ra: .cfa -8 + ^ x29: .cfa -16 + ^
STACK CFI INIT 3a1c4 24 .cfa: sp 0 + .ra: x30
STACK CFI 3a1d0 .cfa: x29 16 + .ra: .cfa -8 + ^ x29: .cfa -16 + ^
STACK CFI INIT 3a1e8 14 .cfa: sp 0 + .ra: x30
STACK CFI 3a1ec .cfa: sp 16 +
STACK CFI INIT 3a1fc 48 .cfa: sp 0 + .ra: x30
STACK CFI 3a208 .cfa: x29 16 + .ra: .cfa -8 + ^ x29: .cfa -16 + ^
STACK CFI INIT 3a244 2c .cfa: sp 0 + .ra: x30
STACK CFI 3a250 .cfa: x29 16 + .ra: .cfa -8 + ^ x29: .cfa -16 + ^
STACK CFI INIT 3a270 24 .cfa: sp 0 + .ra: x30
STACK CFI 3a27c .cfa: x29 16 + .ra: .cfa -8 + ^ x29: .cfa -16 + ^
STACK CFI INIT 3a294 14 .cfa: sp 0 + .ra: x30
STACK CFI 3a298 .cfa: sp 16 +
STACK CFI INIT 3a2a8 2c .cfa: sp 0 + .ra: x30
STACK CFI 3a2b4 .cfa: x29 16 + .ra: .cfa -8 + ^ x29: .cfa -16 + ^
STACK CFI INIT 3a2d4 3c .cfa: sp 0 + .ra: x30
STACK CFI 3a2e0 .cfa: x29 16 + .ra: .cfa -8 + ^ x29: .cfa -16 + ^
STACK CFI INIT 3a310 2c .cfa: sp 0 + .ra: x30
STACK CFI 3a31c .cfa: x29 16 + .ra: .cfa -8 + ^ x29: .cfa -16 + ^
STACK CFI INIT 3a33c a0 .cfa: sp 0 + .ra: x30
STACK CFI 3a348 .cfa: x29 16 + .ra: .cfa -8 + ^ x29: .cfa -16 + ^
STACK CFI INIT 3a3dc 34 .cfa: sp 0 + .ra: x30
STACK CFI 3a3e8 .cfa: x29 16 + .ra: .cfa -8 + ^ x29: .cfa -16 + ^
STACK CFI INIT 3a410 34 .cfa: sp 0 + .ra: x30
STACK CFI 3a41c .cfa: x29 16 + .ra: .cfa -8 + ^ x29: .cfa -16 + ^
STACK CFI INIT 3a444 14 .cfa: sp 0 + .ra: x30
STACK CFI 3a448 .cfa: sp 16 +
STACK CFI INIT 3a458 18 .cfa: sp 0 + .ra: x30
STACK CFI 3a45c .cfa: sp 32 +
STACK CFI INIT 3a470 2c .cfa: sp 0 + .ra: x30
STACK CFI 3a47c .cfa: x29 16 + .ra: .cfa -8 + ^ x29: .cfa -16 + ^
STACK CFI INIT 3a49c 14 .cfa: sp 0 + .ra: x30
STACK CFI 3a4a0 .cfa: sp 16 +
STACK CFI INIT 3a4b0 50 .cfa: sp 0 + .ra: x30
STACK CFI 3a4bc .cfa: x29 16 + .ra: .cfa -8 + ^ x29: .cfa -16 + ^
STACK CFI INIT 3a500 d4 .cfa: sp 0 + .ra: x30
STACK CFI 3a50c .cfa: x29 16 + .ra: .cfa -8 + ^ x29: .cfa -16 + ^
STACK CFI INIT 3a5d4 84 .cfa: sp 0 + .ra: x30
STACK CFI 3a5e0 .cfa: x29 16 + .ra: .cfa -8 + ^ x29: .cfa -16 + ^
STACK CFI INIT 3a658 20 .cfa: sp 0 + .ra: x30
STACK CFI 3a65c .cfa: sp 48 +
STACK CFI INIT 3a678 28 .cfa: sp 0 + .ra: x30
STACK CFI 3a684 .cfa: x29 16 + .ra: .cfa -8 + ^ x29: .cfa -16 + ^
STACK CFI INIT 3a6a0 24 .cfa: sp 0 + .ra: x30
STACK CFI 3a6ac .cfa: x29 16 + .ra: .cfa -8 + ^ x29: .cfa -16 + ^
STACK CFI INIT 3a6c4 28 .cfa: sp 0 + .ra: x30
STACK CFI 3a6c8 .cfa: sp 16 +
STACK CFI INIT 3a6ec 14 .cfa: sp 0 + .ra: x30
STACK CFI 3a6f0 .cfa: sp 16 +
STACK CFI INIT 3a700 48 .cfa: sp 0 + .ra: x30
STACK CFI 3a70c .cfa: x29 16 + .ra: .cfa -8 + ^ x29: .cfa -16 + ^
STACK CFI INIT 3a748 2c .cfa: sp 0 + .ra: x30
STACK CFI 3a754 .cfa: x29 16 + .ra: .cfa -8 + ^ x29: .cfa -16 + ^
STACK CFI INIT 3a774 24 .cfa: sp 0 + .ra: x30
STACK CFI 3a780 .cfa: x29 16 + .ra: .cfa -8 + ^ x29: .cfa -16 + ^
STACK CFI INIT 3a798 14 .cfa: sp 0 + .ra: x30
STACK CFI 3a79c .cfa: sp 16 +
STACK CFI INIT 3a7ac 2c .cfa: sp 0 + .ra: x30
STACK CFI 3a7b8 .cfa: x29 16 + .ra: .cfa -8 + ^ x29: .cfa -16 + ^
STACK CFI INIT 3a7d8 3c .cfa: sp 0 + .ra: x30
STACK CFI 3a7e4 .cfa: x29 16 + .ra: .cfa -8 + ^ x29: .cfa -16 + ^
STACK CFI INIT 3a814 2c .cfa: sp 0 + .ra: x30
STACK CFI 3a820 .cfa: x29 16 + .ra: .cfa -8 + ^ x29: .cfa -16 + ^
STACK CFI INIT 3a840 a0 .cfa: sp 0 + .ra: x30
STACK CFI 3a84c .cfa: x29 16 + .ra: .cfa -8 + ^ x29: .cfa -16 + ^
STACK CFI INIT 3a8e0 34 .cfa: sp 0 + .ra: x30
STACK CFI 3a8ec .cfa: x29 16 + .ra: .cfa -8 + ^ x29: .cfa -16 + ^
STACK CFI INIT 3a914 34 .cfa: sp 0 + .ra: x30
STACK CFI 3a920 .cfa: x29 16 + .ra: .cfa -8 + ^ x29: .cfa -16 + ^
STACK CFI INIT 3a948 14 .cfa: sp 0 + .ra: x30
STACK CFI 3a94c .cfa: sp 16 +
STACK CFI INIT 3a95c 18 .cfa: sp 0 + .ra: x30
STACK CFI 3a960 .cfa: sp 32 +
STACK CFI INIT 3a974 2c .cfa: sp 0 + .ra: x30
STACK CFI 3a980 .cfa: x29 16 + .ra: .cfa -8 + ^ x29: .cfa -16 + ^
STACK CFI INIT 3a9a0 14 .cfa: sp 0 + .ra: x30
STACK CFI 3a9a4 .cfa: sp 16 +
STACK CFI INIT 3a9b4 98 .cfa: sp 0 + .ra: x30
STACK CFI 3a9c0 .cfa: x29 16 + .ra: .cfa -8 + ^ x29: .cfa -16 + ^
STACK CFI INIT 3aa4c d8 .cfa: sp 0 + .ra: x30
STACK CFI 3aa58 .cfa: x29 16 + .ra: .cfa -8 + ^ x29: .cfa -16 + ^
STACK CFI INIT 3ab24 18 .cfa: sp 0 + .ra: x30
STACK CFI 3ab28 .cfa: sp 16 +
STACK CFI INIT 3ab3c 18 .cfa: sp 0 + .ra: x30
STACK CFI 3ab40 .cfa: sp 16 +
STACK CFI INIT 3ab54 218 .cfa: sp 0 + .ra: x30
STACK CFI 3ab60 .cfa: x29 16 + .ra: .cfa -8 + ^ x29: .cfa -16 + ^
STACK CFI INIT 3ad6c b8 .cfa: sp 0 + .ra: x30
STACK CFI 3ad78 .cfa: x29 16 + .ra: .cfa -8 + ^ x29: .cfa -16 + ^
STACK CFI INIT 3ae24 b8 .cfa: sp 0 + .ra: x30
STACK CFI 3ae30 .cfa: x29 16 + .ra: .cfa -8 + ^ x29: .cfa -16 + ^
STACK CFI INIT 3aedc 50 .cfa: sp 0 + .ra: x30
STACK CFI 3aee8 .cfa: x29 16 + .ra: .cfa -8 + ^ x29: .cfa -16 + ^
STACK CFI INIT 3af2c 34 .cfa: sp 0 + .ra: x30
STACK CFI 3af38 .cfa: x29 16 + .ra: .cfa -8 + ^ x29: .cfa -16 + ^
STACK CFI INIT 3af60 f8 .cfa: sp 0 + .ra: x30
STACK CFI 3af6c .cfa: x29 16 + .ra: .cfa -8 + ^ x29: .cfa -16 + ^
STACK CFI INIT 3b058 10 .cfa: sp 0 + .ra: x30
STACK CFI 3b05c .cfa: sp 16 +
STACK CFI INIT 3b068 84 .cfa: sp 0 + .ra: x30
STACK CFI 3b074 .cfa: x29 16 + .ra: .cfa -8 + ^ x29: .cfa -16 + ^
STACK CFI INIT 3b0ec 84 .cfa: sp 0 + .ra: x30
STACK CFI 3b0f8 .cfa: x29 16 + .ra: .cfa -8 + ^ x29: .cfa -16 + ^
STACK CFI INIT 3b170 48 .cfa: sp 0 + .ra: x30
STACK CFI 3b17c .cfa: x29 16 + .ra: .cfa -8 + ^ x29: .cfa -16 + ^
STACK CFI INIT 3b1b8 14 .cfa: sp 0 + .ra: x30
STACK CFI 3b1bc .cfa: sp 16 +
STACK CFI INIT 3b1cc 54 .cfa: sp 0 + .ra: x30
STACK CFI 3b1d8 .cfa: x29 16 + .ra: .cfa -8 + ^ x29: .cfa -16 + ^
STACK CFI INIT 3b220 ec .cfa: sp 0 + .ra: x30
STACK CFI 3b22c .cfa: x29 16 + .ra: .cfa -8 + ^ x29: .cfa -16 + ^
STACK CFI INIT 3b30c f8 .cfa: sp 0 + .ra: x30
STACK CFI 3b318 .cfa: x29 16 + .ra: .cfa -8 + ^ x29: .cfa -16 + ^
STACK CFI INIT 3b404 8c .cfa: sp 0 + .ra: x30
STACK CFI 3b410 .cfa: x29 16 + .ra: .cfa -8 + ^ x29: .cfa -16 + ^
STACK CFI INIT 3b490 84 .cfa: sp 0 + .ra: x30
STACK CFI 3b49c .cfa: x29 16 + .ra: .cfa -8 + ^ x29: .cfa -16 + ^
STACK CFI INIT 3b514 34 .cfa: sp 0 + .ra: x30
STACK CFI 3b520 .cfa: x29 16 + .ra: .cfa -8 + ^ x29: .cfa -16 + ^
STACK CFI INIT 3b548 2c .cfa: sp 0 + .ra: x30
STACK CFI 3b554 .cfa: x29 16 + .ra: .cfa -8 + ^ x29: .cfa -16 + ^
STACK CFI INIT 3b574 2c .cfa: sp 0 + .ra: x30
STACK CFI 3b580 .cfa: x29 16 + .ra: .cfa -8 + ^ x29: .cfa -16 + ^
STACK CFI INIT 3b5a0 14 .cfa: sp 0 + .ra: x30
STACK CFI 3b5a4 .cfa: sp 16 +
STACK CFI INIT 3b5b4 3c .cfa: sp 0 + .ra: x30
STACK CFI 3b5c0 .cfa: x29 16 + .ra: .cfa -8 + ^ x29: .cfa -16 + ^
STACK CFI INIT 3b5f0 7c .cfa: sp 0 + .ra: x30
STACK CFI 3b5fc .cfa: x29 16 + .ra: .cfa -8 + ^ x29: .cfa -16 + ^
STACK CFI INIT 3b66c 2c .cfa: sp 0 + .ra: x30
STACK CFI 3b678 .cfa: x29 16 + .ra: .cfa -8 + ^ x29: .cfa -16 + ^
STACK CFI INIT 3b698 18 .cfa: sp 0 + .ra: x30
STACK CFI 3b69c .cfa: sp 16 +
STACK CFI INIT 3b6b0 24 .cfa: sp 0 + .ra: x30
STACK CFI 3b6bc .cfa: x29 16 + .ra: .cfa -8 + ^ x29: .cfa -16 + ^
STACK CFI INIT 3b6d4 14 .cfa: sp 0 + .ra: x30
STACK CFI 3b6d8 .cfa: sp 16 +
STACK CFI INIT 3b6e8 b0 .cfa: sp 0 + .ra: x30
STACK CFI 3b6f4 .cfa: x29 16 + .ra: .cfa -8 + ^ x29: .cfa -16 + ^
STACK CFI INIT 3b798 88 .cfa: sp 0 + .ra: x30
STACK CFI 3b7a4 .cfa: x29 16 + .ra: .cfa -8 + ^ x29: .cfa -16 + ^
STACK CFI INIT 3b820 2c .cfa: sp 0 + .ra: x30
STACK CFI 3b82c .cfa: x29 16 + .ra: .cfa -8 + ^ x29: .cfa -16 + ^
STACK CFI INIT 3b84c c8 .cfa: sp 0 + .ra: x30
STACK CFI 3b858 .cfa: x29 16 + .ra: .cfa -8 + ^ x29: .cfa -16 + ^
STACK CFI INIT 3b914 10 .cfa: sp 0 + .ra: x30
STACK CFI 3b918 .cfa: sp 16 +
STACK CFI INIT 3b924 64 .cfa: sp 0 + .ra: x30
STACK CFI 3b930 .cfa: x29 16 + .ra: .cfa -8 + ^ x29: .cfa -16 + ^
STACK CFI INIT 3b988 24 .cfa: sp 0 + .ra: x30
STACK CFI 3b994 .cfa: x29 16 + .ra: .cfa -8 + ^ x29: .cfa -16 + ^
STACK CFI INIT 3b9ac 60 .cfa: sp 0 + .ra: x30
STACK CFI 3b9b8 .cfa: x29 16 + .ra: .cfa -8 + ^ x29: .cfa -16 + ^
STACK CFI INIT 3ba0c 44 .cfa: sp 0 + .ra: x30
STACK CFI 3ba18 .cfa: x29 16 + .ra: .cfa -8 + ^ x29: .cfa -16 + ^
STACK CFI INIT 3ba50 14 .cfa: sp 0 + .ra: x30
STACK CFI 3ba54 .cfa: sp 16 +
STACK CFI INIT 3ba64 14 .cfa: sp 0 + .ra: x30
STACK CFI 3ba68 .cfa: sp 16 +
STACK CFI INIT 3ba78 24 .cfa: sp 0 + .ra: x30
STACK CFI 3ba84 .cfa: x29 16 + .ra: .cfa -8 + ^ x29: .cfa -16 + ^
STACK CFI INIT 3ba9c 28 .cfa: sp 0 + .ra: x30
STACK CFI 3baa8 .cfa: x29 16 + .ra: .cfa -8 + ^ x29: .cfa -16 + ^
STACK CFI INIT 3bac4 48 .cfa: sp 0 + .ra: x30
STACK CFI 3bad0 .cfa: x29 16 + .ra: .cfa -8 + ^ x29: .cfa -16 + ^
STACK CFI INIT 3bb0c 34 .cfa: sp 0 + .ra: x30
STACK CFI 3bb18 .cfa: x29 16 + .ra: .cfa -8 + ^ x29: .cfa -16 + ^
STACK CFI INIT 3bb40 9c .cfa: sp 0 + .ra: x30
STACK CFI 3bb4c .cfa: x29 16 + .ra: .cfa -8 + ^ x29: .cfa -16 + ^
STACK CFI INIT 3bbdc 2c .cfa: sp 0 + .ra: x30
STACK CFI 3bbe8 .cfa: x29 16 + .ra: .cfa -8 + ^ x29: .cfa -16 + ^
STACK CFI INIT 3bc08 24 .cfa: sp 0 + .ra: x30
STACK CFI 3bc14 .cfa: x29 16 + .ra: .cfa -8 + ^ x29: .cfa -16 + ^
STACK CFI INIT 3bc2c 50 .cfa: sp 0 + .ra: x30
STACK CFI 3bc38 .cfa: x29 16 + .ra: .cfa -8 + ^ x29: .cfa -16 + ^
STACK CFI INIT 3bc7c 34 .cfa: sp 0 + .ra: x30
STACK CFI 3bc88 .cfa: x29 16 + .ra: .cfa -8 + ^ x29: .cfa -16 + ^
STACK CFI INIT 3bcb0 f8 .cfa: sp 0 + .ra: x30
STACK CFI 3bcbc .cfa: x29 16 + .ra: .cfa -8 + ^ x29: .cfa -16 + ^
STACK CFI INIT 3bda8 10 .cfa: sp 0 + .ra: x30
STACK CFI 3bdac .cfa: sp 16 +
STACK CFI INIT 3bdb8 84 .cfa: sp 0 + .ra: x30
STACK CFI 3bdc4 .cfa: x29 16 + .ra: .cfa -8 + ^ x29: .cfa -16 + ^
STACK CFI INIT 3be3c 84 .cfa: sp 0 + .ra: x30
STACK CFI 3be48 .cfa: x29 16 + .ra: .cfa -8 + ^ x29: .cfa -16 + ^
STACK CFI INIT 3bec0 48 .cfa: sp 0 + .ra: x30
STACK CFI 3becc .cfa: x29 16 + .ra: .cfa -8 + ^ x29: .cfa -16 + ^
STACK CFI INIT 3bf08 14 .cfa: sp 0 + .ra: x30
STACK CFI 3bf0c .cfa: sp 16 +
STACK CFI INIT 3bf1c 54 .cfa: sp 0 + .ra: x30
STACK CFI 3bf28 .cfa: x29 16 + .ra: .cfa -8 + ^ x29: .cfa -16 + ^
STACK CFI INIT 3bf70 ec .cfa: sp 0 + .ra: x30
STACK CFI 3bf7c .cfa: x29 16 + .ra: .cfa -8 + ^ x29: .cfa -16 + ^
STACK CFI INIT 3c05c f8 .cfa: sp 0 + .ra: x30
STACK CFI 3c068 .cfa: x29 16 + .ra: .cfa -8 + ^ x29: .cfa -16 + ^
STACK CFI INIT 3c154 8c .cfa: sp 0 + .ra: x30
STACK CFI 3c160 .cfa: x29 16 + .ra: .cfa -8 + ^ x29: .cfa -16 + ^
STACK CFI INIT 3c1e0 84 .cfa: sp 0 + .ra: x30
STACK CFI 3c1ec .cfa: x29 16 + .ra: .cfa -8 + ^ x29: .cfa -16 + ^
STACK CFI INIT 3c264 34 .cfa: sp 0 + .ra: x30
STACK CFI 3c270 .cfa: x29 16 + .ra: .cfa -8 + ^ x29: .cfa -16 + ^
STACK CFI INIT 3c298 2c .cfa: sp 0 + .ra: x30
STACK CFI 3c2a4 .cfa: x29 16 + .ra: .cfa -8 + ^ x29: .cfa -16 + ^
STACK CFI INIT 3c2c4 2c .cfa: sp 0 + .ra: x30
STACK CFI 3c2d0 .cfa: x29 16 + .ra: .cfa -8 + ^ x29: .cfa -16 + ^
STACK CFI INIT 3c2f0 14 .cfa: sp 0 + .ra: x30
STACK CFI 3c2f4 .cfa: sp 16 +
STACK CFI INIT 3c304 3c .cfa: sp 0 + .ra: x30
STACK CFI 3c310 .cfa: x29 16 + .ra: .cfa -8 + ^ x29: .cfa -16 + ^
STACK CFI INIT 3c340 7c .cfa: sp 0 + .ra: x30
STACK CFI 3c34c .cfa: x29 16 + .ra: .cfa -8 + ^ x29: .cfa -16 + ^
STACK CFI INIT 3c3bc 2c .cfa: sp 0 + .ra: x30
STACK CFI 3c3c8 .cfa: x29 16 + .ra: .cfa -8 + ^ x29: .cfa -16 + ^
STACK CFI INIT 3c3e8 18 .cfa: sp 0 + .ra: x30
STACK CFI 3c3ec .cfa: sp 16 +
STACK CFI INIT 3c400 24 .cfa: sp 0 + .ra: x30
STACK CFI 3c40c .cfa: x29 16 + .ra: .cfa -8 + ^ x29: .cfa -16 + ^
STACK CFI INIT 3c424 14 .cfa: sp 0 + .ra: x30
STACK CFI 3c428 .cfa: sp 16 +
STACK CFI INIT 3c438 b0 .cfa: sp 0 + .ra: x30
STACK CFI 3c444 .cfa: x29 16 + .ra: .cfa -8 + ^ x29: .cfa -16 + ^
STACK CFI INIT 3c4e8 88 .cfa: sp 0 + .ra: x30
STACK CFI 3c4f4 .cfa: x29 16 + .ra: .cfa -8 + ^ x29: .cfa -16 + ^
STACK CFI INIT 3c570 2c .cfa: sp 0 + .ra: x30
STACK CFI 3c57c .cfa: x29 16 + .ra: .cfa -8 + ^ x29: .cfa -16 + ^
STACK CFI INIT 3c59c c8 .cfa: sp 0 + .ra: x30
STACK CFI 3c5a8 .cfa: x29 16 + .ra: .cfa -8 + ^ x29: .cfa -16 + ^
STACK CFI INIT 3c664 10 .cfa: sp 0 + .ra: x30
STACK CFI 3c668 .cfa: sp 16 +
STACK CFI INIT 3c674 64 .cfa: sp 0 + .ra: x30
STACK CFI 3c680 .cfa: x29 16 + .ra: .cfa -8 + ^ x29: .cfa -16 + ^
STACK CFI INIT 3c6d8 24 .cfa: sp 0 + .ra: x30
STACK CFI 3c6e4 .cfa: x29 16 + .ra: .cfa -8 + ^ x29: .cfa -16 + ^
STACK CFI INIT 3c6fc 60 .cfa: sp 0 + .ra: x30
STACK CFI 3c708 .cfa: x29 16 + .ra: .cfa -8 + ^ x29: .cfa -16 + ^
STACK CFI INIT 3c75c 14 .cfa: sp 0 + .ra: x30
STACK CFI 3c760 .cfa: sp 16 +
STACK CFI INIT 3c770 44 .cfa: sp 0 + .ra: x30
STACK CFI 3c77c .cfa: x29 16 + .ra: .cfa -8 + ^ x29: .cfa -16 + ^
STACK CFI INIT 3c7b4 14 .cfa: sp 0 + .ra: x30
STACK CFI 3c7b8 .cfa: sp 16 +
STACK CFI INIT 3c7c8 14 .cfa: sp 0 + .ra: x30
STACK CFI 3c7cc .cfa: sp 16 +
STACK CFI INIT 3c7dc 24 .cfa: sp 0 + .ra: x30
STACK CFI 3c7e8 .cfa: x29 16 + .ra: .cfa -8 + ^ x29: .cfa -16 + ^
STACK CFI INIT 3c800 28 .cfa: sp 0 + .ra: x30
STACK CFI 3c80c .cfa: x29 16 + .ra: .cfa -8 + ^ x29: .cfa -16 + ^
STACK CFI INIT 3c828 48 .cfa: sp 0 + .ra: x30
STACK CFI 3c834 .cfa: x29 16 + .ra: .cfa -8 + ^ x29: .cfa -16 + ^
STACK CFI INIT 3c870 34 .cfa: sp 0 + .ra: x30
STACK CFI 3c87c .cfa: x29 16 + .ra: .cfa -8 + ^ x29: .cfa -16 + ^
STACK CFI INIT 3c8a4 9c .cfa: sp 0 + .ra: x30
STACK CFI 3c8b0 .cfa: x29 16 + .ra: .cfa -8 + ^ x29: .cfa -16 + ^
STACK CFI INIT 3c940 2c .cfa: sp 0 + .ra: x30
STACK CFI 3c94c .cfa: x29 16 + .ra: .cfa -8 + ^ x29: .cfa -16 + ^
STACK CFI INIT 3c96c 24 .cfa: sp 0 + .ra: x30
STACK CFI 3c978 .cfa: x29 16 + .ra: .cfa -8 + ^ x29: .cfa -16 + ^
STACK CFI INIT 3c990 50 .cfa: sp 0 + .ra: x30
STACK CFI 3c99c .cfa: x29 16 + .ra: .cfa -8 + ^ x29: .cfa -16 + ^
STACK CFI INIT 3c9e0 34 .cfa: sp 0 + .ra: x30
STACK CFI 3c9ec .cfa: x29 16 + .ra: .cfa -8 + ^ x29: .cfa -16 + ^
STACK CFI INIT 3ca14 f8 .cfa: sp 0 + .ra: x30
STACK CFI 3ca20 .cfa: x29 16 + .ra: .cfa -8 + ^ x29: .cfa -16 + ^
STACK CFI INIT 3cb0c 10 .cfa: sp 0 + .ra: x30
STACK CFI 3cb10 .cfa: sp 16 +
STACK CFI INIT 3cb1c 84 .cfa: sp 0 + .ra: x30
STACK CFI 3cb28 .cfa: x29 16 + .ra: .cfa -8 + ^ x29: .cfa -16 + ^
STACK CFI INIT 3cba0 84 .cfa: sp 0 + .ra: x30
STACK CFI 3cbac .cfa: x29 16 + .ra: .cfa -8 + ^ x29: .cfa -16 + ^
STACK CFI INIT 3cc24 48 .cfa: sp 0 + .ra: x30
STACK CFI 3cc30 .cfa: x29 16 + .ra: .cfa -8 + ^ x29: .cfa -16 + ^
STACK CFI INIT 3cc6c 14 .cfa: sp 0 + .ra: x30
STACK CFI 3cc70 .cfa: sp 16 +
STACK CFI INIT 3cc80 54 .cfa: sp 0 + .ra: x30
STACK CFI 3cc8c .cfa: x29 16 + .ra: .cfa -8 + ^ x29: .cfa -16 + ^
STACK CFI INIT 3ccd4 ec .cfa: sp 0 + .ra: x30
STACK CFI 3cce0 .cfa: x29 16 + .ra: .cfa -8 + ^ x29: .cfa -16 + ^
STACK CFI INIT 3cdc0 f8 .cfa: sp 0 + .ra: x30
STACK CFI 3cdcc .cfa: x29 16 + .ra: .cfa -8 + ^ x29: .cfa -16 + ^
STACK CFI INIT 3ceb8 8c .cfa: sp 0 + .ra: x30
STACK CFI 3cec4 .cfa: x29 16 + .ra: .cfa -8 + ^ x29: .cfa -16 + ^
STACK CFI INIT 3cf44 84 .cfa: sp 0 + .ra: x30
STACK CFI 3cf50 .cfa: x29 16 + .ra: .cfa -8 + ^ x29: .cfa -16 + ^
STACK CFI INIT 3cfc8 34 .cfa: sp 0 + .ra: x30
STACK CFI 3cfd4 .cfa: x29 16 + .ra: .cfa -8 + ^ x29: .cfa -16 + ^
STACK CFI INIT 3cffc 2c .cfa: sp 0 + .ra: x30
STACK CFI 3d008 .cfa: x29 16 + .ra: .cfa -8 + ^ x29: .cfa -16 + ^
STACK CFI INIT 3d028 2c .cfa: sp 0 + .ra: x30
STACK CFI 3d034 .cfa: x29 16 + .ra: .cfa -8 + ^ x29: .cfa -16 + ^
STACK CFI INIT 3d054 14 .cfa: sp 0 + .ra: x30
STACK CFI 3d058 .cfa: sp 16 +
STACK CFI INIT 3d068 3c .cfa: sp 0 + .ra: x30
STACK CFI 3d074 .cfa: x29 16 + .ra: .cfa -8 + ^ x29: .cfa -16 + ^
STACK CFI INIT 3d0a4 7c .cfa: sp 0 + .ra: x30
STACK CFI 3d0b0 .cfa: x29 16 + .ra: .cfa -8 + ^ x29: .cfa -16 + ^
STACK CFI INIT 3d120 2c .cfa: sp 0 + .ra: x30
STACK CFI 3d12c .cfa: x29 16 + .ra: .cfa -8 + ^ x29: .cfa -16 + ^
STACK CFI INIT 3d14c 18 .cfa: sp 0 + .ra: x30
STACK CFI 3d150 .cfa: sp 16 +
STACK CFI INIT 3d164 24 .cfa: sp 0 + .ra: x30
STACK CFI 3d170 .cfa: x29 16 + .ra: .cfa -8 + ^ x29: .cfa -16 + ^
STACK CFI INIT 3d188 14 .cfa: sp 0 + .ra: x30
STACK CFI 3d18c .cfa: sp 16 +
STACK CFI INIT 3d19c b0 .cfa: sp 0 + .ra: x30
STACK CFI 3d1a8 .cfa: x29 16 + .ra: .cfa -8 + ^ x29: .cfa -16 + ^
STACK CFI INIT 3d24c 88 .cfa: sp 0 + .ra: x30
STACK CFI 3d258 .cfa: x29 16 + .ra: .cfa -8 + ^ x29: .cfa -16 + ^
STACK CFI INIT 3d2d4 2c .cfa: sp 0 + .ra: x30
STACK CFI 3d2e0 .cfa: x29 16 + .ra: .cfa -8 + ^ x29: .cfa -16 + ^
STACK CFI INIT 3d300 c8 .cfa: sp 0 + .ra: x30
STACK CFI 3d30c .cfa: x29 16 + .ra: .cfa -8 + ^ x29: .cfa -16 + ^
STACK CFI INIT 3d3c8 10 .cfa: sp 0 + .ra: x30
STACK CFI 3d3cc .cfa: sp 16 +
STACK CFI INIT 3d3d8 64 .cfa: sp 0 + .ra: x30
STACK CFI 3d3e4 .cfa: x29 16 + .ra: .cfa -8 + ^ x29: .cfa -16 + ^
STACK CFI INIT 3d43c 24 .cfa: sp 0 + .ra: x30
STACK CFI 3d448 .cfa: x29 16 + .ra: .cfa -8 + ^ x29: .cfa -16 + ^
STACK CFI INIT 3d460 60 .cfa: sp 0 + .ra: x30
STACK CFI 3d46c .cfa: x29 16 + .ra: .cfa -8 + ^ x29: .cfa -16 + ^
STACK CFI INIT 3d4c0 14 .cfa: sp 0 + .ra: x30
STACK CFI 3d4c4 .cfa: sp 16 +
STACK CFI INIT 3d4d4 44 .cfa: sp 0 + .ra: x30
STACK CFI 3d4e0 .cfa: x29 16 + .ra: .cfa -8 + ^ x29: .cfa -16 + ^
STACK CFI INIT 3d518 14 .cfa: sp 0 + .ra: x30
STACK CFI 3d51c .cfa: sp 16 +
STACK CFI INIT 3d52c 14 .cfa: sp 0 + .ra: x30
STACK CFI 3d530 .cfa: sp 16 +
STACK CFI INIT 3d540 24 .cfa: sp 0 + .ra: x30
STACK CFI 3d54c .cfa: x29 16 + .ra: .cfa -8 + ^ x29: .cfa -16 + ^
STACK CFI INIT 3d564 28 .cfa: sp 0 + .ra: x30
STACK CFI 3d570 .cfa: x29 16 + .ra: .cfa -8 + ^ x29: .cfa -16 + ^
STACK CFI INIT 3d58c 48 .cfa: sp 0 + .ra: x30
STACK CFI 3d598 .cfa: x29 16 + .ra: .cfa -8 + ^ x29: .cfa -16 + ^
STACK CFI INIT 3d5d4 34 .cfa: sp 0 + .ra: x30
STACK CFI 3d5e0 .cfa: x29 16 + .ra: .cfa -8 + ^ x29: .cfa -16 + ^
STACK CFI INIT 3d608 9c .cfa: sp 0 + .ra: x30
STACK CFI 3d614 .cfa: x29 16 + .ra: .cfa -8 + ^ x29: .cfa -16 + ^
STACK CFI INIT 3d6a4 2c .cfa: sp 0 + .ra: x30
STACK CFI 3d6b0 .cfa: x29 16 + .ra: .cfa -8 + ^ x29: .cfa -16 + ^
STACK CFI INIT 3d6d0 24 .cfa: sp 0 + .ra: x30
STACK CFI 3d6dc .cfa: x29 16 + .ra: .cfa -8 + ^ x29: .cfa -16 + ^
STACK CFI INIT 3d6f4 13c .cfa: sp 0 + .ra: x30
STACK CFI 3d700 .cfa: x29 16 + .ra: .cfa -8 + ^ x29: .cfa -16 + ^
STACK CFI INIT 3d830 60 .cfa: sp 0 + .ra: x30
STACK CFI 3d83c .cfa: x29 16 + .ra: .cfa -8 + ^ x29: .cfa -16 + ^
STACK CFI INIT 3d890 e4 .cfa: sp 0 + .ra: x30
STACK CFI 3d89c .cfa: x29 16 + .ra: .cfa -8 + ^ x29: .cfa -16 + ^
STACK CFI INIT 3d974 e4 .cfa: sp 0 + .ra: x30
STACK CFI 3d980 .cfa: x29 16 + .ra: .cfa -8 + ^ x29: .cfa -16 + ^
STACK CFI INIT 3da58 a4 .cfa: sp 0 + .ra: x30
STACK CFI 3da64 .cfa: x29 16 + .ra: .cfa -8 + ^ x29: .cfa -16 + ^
STACK CFI INIT 3dafc 18 .cfa: sp 0 + .ra: x30
STACK CFI 3db00 .cfa: sp 32 +
STACK CFI INIT 3db14 34 .cfa: sp 0 + .ra: x30
STACK CFI 3db20 .cfa: x29 16 + .ra: .cfa -8 + ^ x29: .cfa -16 + ^
STACK CFI INIT 3db48 10 .cfa: sp 0 + .ra: x30
STACK CFI 3db4c .cfa: sp 16 +
STACK CFI INIT 3db58 34 .cfa: sp 0 + .ra: x30
STACK CFI 3db64 .cfa: x29 16 + .ra: .cfa -8 + ^ x29: .cfa -16 + ^
STACK CFI INIT 3db8c 1c .cfa: sp 0 + .ra: x30
STACK CFI 3db90 .cfa: sp 16 +
STACK CFI INIT 3dba8 8c .cfa: sp 0 + .ra: x30
STACK CFI 3dbb4 .cfa: x29 16 + .ra: .cfa -8 + ^ x29: .cfa -16 + ^
STACK CFI INIT 3dc34 2c .cfa: sp 0 + .ra: x30
STACK CFI 3dc40 .cfa: x29 16 + .ra: .cfa -8 + ^ x29: .cfa -16 + ^
STACK CFI INIT 3dc60 2c .cfa: sp 0 + .ra: x30
STACK CFI 3dc6c .cfa: x29 16 + .ra: .cfa -8 + ^ x29: .cfa -16 + ^
STACK CFI INIT 3dc8c 2c .cfa: sp 0 + .ra: x30
STACK CFI 3dc98 .cfa: x29 16 + .ra: .cfa -8 + ^ x29: .cfa -16 + ^
STACK CFI INIT 3dcb8 18 .cfa: sp 0 + .ra: x30
STACK CFI 3dcbc .cfa: sp 16 +
STACK CFI INIT 3dcd0 2c .cfa: sp 0 + .ra: x30
STACK CFI 3dcdc .cfa: x29 16 + .ra: .cfa -8 + ^ x29: .cfa -16 + ^
STACK CFI INIT 3dcfc 14 .cfa: sp 0 + .ra: x30
STACK CFI 3dd00 .cfa: sp 16 +
STACK CFI INIT 3dd10 14 .cfa: sp 0 + .ra: x30
STACK CFI 3dd14 .cfa: sp 16 +
STACK CFI INIT 3dd24 c8 .cfa: sp 0 + .ra: x30
STACK CFI 3dd30 .cfa: x29 16 + .ra: .cfa -8 + ^ x29: .cfa -16 + ^
STACK CFI INIT 3ddec 18 .cfa: sp 0 + .ra: x30
STACK CFI 3ddf0 .cfa: sp 32 +
STACK CFI INIT 3de04 64 .cfa: sp 0 + .ra: x30
STACK CFI 3de10 .cfa: x29 16 + .ra: .cfa -8 + ^ x29: .cfa -16 + ^
STACK CFI INIT 3de68 10 .cfa: sp 0 + .ra: x30
STACK CFI 3de6c .cfa: sp 16 +
STACK CFI INIT 3de78 12c .cfa: sp 0 + .ra: x30
STACK CFI 3de84 .cfa: x29 16 + .ra: .cfa -8 + ^ x29: .cfa -16 + ^
STACK CFI INIT 3dfa4 60 .cfa: sp 0 + .ra: x30
STACK CFI 3dfb0 .cfa: x29 16 + .ra: .cfa -8 + ^ x29: .cfa -16 + ^
STACK CFI INIT 3e004 14 .cfa: sp 0 + .ra: x30
STACK CFI 3e008 .cfa: sp 16 +
STACK CFI INIT 3e018 44 .cfa: sp 0 + .ra: x30
STACK CFI 3e024 .cfa: x29 16 + .ra: .cfa -8 + ^ x29: .cfa -16 + ^
STACK CFI INIT 3e05c e4 .cfa: sp 0 + .ra: x30
STACK CFI 3e068 .cfa: x29 16 + .ra: .cfa -8 + ^ x29: .cfa -16 + ^
STACK CFI INIT 3e140 8c .cfa: sp 0 + .ra: x30
STACK CFI 3e14c .cfa: x29 16 + .ra: .cfa -8 + ^ x29: .cfa -16 + ^
STACK CFI INIT 3e1cc 2c .cfa: sp 0 + .ra: x30
STACK CFI 3e1d8 .cfa: x29 16 + .ra: .cfa -8 + ^ x29: .cfa -16 + ^
STACK CFI INIT 3e1f8 2c .cfa: sp 0 + .ra: x30
STACK CFI 3e204 .cfa: x29 16 + .ra: .cfa -8 + ^ x29: .cfa -16 + ^
STACK CFI INIT 3e224 2c .cfa: sp 0 + .ra: x30
STACK CFI 3e230 .cfa: x29 16 + .ra: .cfa -8 + ^ x29: .cfa -16 + ^
STACK CFI INIT 3e250 18 .cfa: sp 0 + .ra: x30
STACK CFI 3e254 .cfa: sp 16 +
STACK CFI INIT 3e268 2c .cfa: sp 0 + .ra: x30
STACK CFI 3e274 .cfa: x29 16 + .ra: .cfa -8 + ^ x29: .cfa -16 + ^
STACK CFI INIT 3e294 14 .cfa: sp 0 + .ra: x30
STACK CFI 3e298 .cfa: sp 16 +
STACK CFI INIT 3e2a8 70 .cfa: sp 0 + .ra: x30
STACK CFI 3e2b4 .cfa: x29 16 + .ra: .cfa -8 + ^ x29: .cfa -16 + ^
STACK CFI INIT 3e318 1fc .cfa: sp 0 + .ra: x30
STACK CFI 3e324 .cfa: x29 16 + .ra: .cfa -8 + ^ x29: .cfa -16 + ^
STACK CFI INIT 3e514 14c .cfa: sp 0 + .ra: x30
STACK CFI 3e520 .cfa: x29 16 + .ra: .cfa -8 + ^ x29: .cfa -16 + ^
STACK CFI INIT 3e660 b8 .cfa: sp 0 + .ra: x30
STACK CFI 3e66c .cfa: x29 16 + .ra: .cfa -8 + ^ x29: .cfa -16 + ^
STACK CFI INIT 3e718 104 .cfa: sp 0 + .ra: x30
STACK CFI 3e724 .cfa: x29 16 + .ra: .cfa -8 + ^ x29: .cfa -16 + ^
STACK CFI INIT 3e81c 28 .cfa: sp 0 + .ra: x30
STACK CFI 3e820 .cfa: sp 32 +
STACK CFI INIT 3e844 2e4 .cfa: sp 0 + .ra: x30
STACK CFI 3e854 .cfa: x29 16 + .ra: .cfa -8 + ^ x28: .cfa -32 + ^ x29: .cfa -16 + ^
STACK CFI INIT 3eb28 30 .cfa: sp 0 + .ra: x30
STACK CFI 3eb2c .cfa: sp 16 +
STACK CFI INIT 3eb58 3c .cfa: sp 0 + .ra: x30
STACK CFI 3eb64 .cfa: x29 16 + .ra: .cfa -8 + ^ x29: .cfa -16 + ^
STACK CFI INIT 3eb94 88 .cfa: sp 0 + .ra: x30
STACK CFI 3eba0 .cfa: x29 16 + .ra: .cfa -8 + ^ x29: .cfa -16 + ^
STACK CFI INIT 3ec1c 20 .cfa: sp 0 + .ra: x30
STACK CFI 3ec20 .cfa: sp 16 +
STACK CFI INIT 3ec3c 1d4 .cfa: sp 0 + .ra: x30
STACK CFI 3ec48 .cfa: x29 16 + .ra: .cfa -8 + ^ x29: .cfa -16 + ^
STACK CFI INIT 3ee10 118 .cfa: sp 0 + .ra: x30
STACK CFI 3ee1c .cfa: x29 16 + .ra: .cfa -8 + ^ x29: .cfa -16 + ^
STACK CFI INIT 3ef28 9c .cfa: sp 0 + .ra: x30
STACK CFI 3ef34 .cfa: x29 16 + .ra: .cfa -8 + ^ x29: .cfa -16 + ^
STACK CFI INIT 3efc4 110 .cfa: sp 0 + .ra: x30
STACK CFI 3efd0 .cfa: x29 16 + .ra: .cfa -8 + ^ x29: .cfa -16 + ^
STACK CFI INIT 3f0d4 68 .cfa: sp 0 + .ra: x30
STACK CFI 3f0e0 .cfa: x29 16 + .ra: .cfa -8 + ^ x29: .cfa -16 + ^
STACK CFI INIT 3f13c 1c8 .cfa: sp 0 + .ra: x30
STACK CFI 3f14c .cfa: x29 16 + .ra: .cfa -8 + ^ x28: .cfa -32 + ^ x29: .cfa -16 + ^
STACK CFI INIT 3f304 28 .cfa: sp 0 + .ra: x30
STACK CFI 3f308 .cfa: sp 16 +
STACK CFI INIT 3f32c 17c .cfa: sp 0 + .ra: x30
STACK CFI 3f338 .cfa: x29 16 + .ra: .cfa -8 + ^ x29: .cfa -16 + ^
STACK CFI INIT 3f4a8 fc .cfa: sp 0 + .ra: x30
STACK CFI 3f4b4 .cfa: x29 16 + .ra: .cfa -8 + ^ x29: .cfa -16 + ^
STACK CFI INIT 3f5a4 84 .cfa: sp 0 + .ra: x30
STACK CFI 3f5ac .cfa: sp 48 + .ra: .cfa -16 + ^
STACK CFI INIT 3f628 30 .cfa: sp 0 + .ra: x30
STACK CFI 3f634 .cfa: x29 16 + .ra: .cfa -8 + ^ x29: .cfa -16 + ^
STACK CFI INIT 3f658 b8 .cfa: sp 0 + .ra: x30
STACK CFI 3f664 .cfa: x29 16 + .ra: .cfa -8 + ^ x29: .cfa -16 + ^
STACK CFI INIT 3f710 d8 .cfa: sp 0 + .ra: x30
STACK CFI 3f71c .cfa: x29 16 + .ra: .cfa -8 + ^ x29: .cfa -16 + ^
STACK CFI INIT 3f7e8 a8 .cfa: sp 0 + .ra: x30
STACK CFI 3f7f4 .cfa: x29 16 + .ra: .cfa -8 + ^ x29: .cfa -16 + ^
STACK CFI INIT 3f890 3c .cfa: sp 0 + .ra: x30
STACK CFI 3f89c .cfa: x29 16 + .ra: .cfa -8 + ^ x29: .cfa -16 + ^
STACK CFI INIT 3f8cc b8 .cfa: sp 0 + .ra: x30
STACK CFI 3f8d8 .cfa: x29 16 + .ra: .cfa -8 + ^ x29: .cfa -16 + ^
STACK CFI INIT 3f984 a8 .cfa: sp 0 + .ra: x30
STACK CFI 3f990 .cfa: x29 16 + .ra: .cfa -8 + ^ x29: .cfa -16 + ^
STACK CFI INIT 3fa2c 13c .cfa: sp 0 + .ra: x30
STACK CFI 3fa38 .cfa: x29 16 + .ra: .cfa -8 + ^ x29: .cfa -16 + ^
STACK CFI INIT 3fb68 60 .cfa: sp 0 + .ra: x30
STACK CFI 3fb74 .cfa: x29 16 + .ra: .cfa -8 + ^ x29: .cfa -16 + ^
STACK CFI INIT 3fbc8 e4 .cfa: sp 0 + .ra: x30
STACK CFI 3fbd4 .cfa: x29 16 + .ra: .cfa -8 + ^ x29: .cfa -16 + ^
STACK CFI INIT 3fcac e4 .cfa: sp 0 + .ra: x30
STACK CFI 3fcb8 .cfa: x29 16 + .ra: .cfa -8 + ^ x29: .cfa -16 + ^
STACK CFI INIT 3fd90 a4 .cfa: sp 0 + .ra: x30
STACK CFI 3fd9c .cfa: x29 16 + .ra: .cfa -8 + ^ x29: .cfa -16 + ^
STACK CFI INIT 3fe34 18 .cfa: sp 0 + .ra: x30
STACK CFI 3fe38 .cfa: sp 32 +
STACK CFI INIT 3fe4c 34 .cfa: sp 0 + .ra: x30
STACK CFI 3fe58 .cfa: x29 16 + .ra: .cfa -8 + ^ x29: .cfa -16 + ^
STACK CFI INIT 3fe80 10 .cfa: sp 0 + .ra: x30
STACK CFI 3fe84 .cfa: sp 16 +
STACK CFI INIT 3fe90 34 .cfa: sp 0 + .ra: x30
STACK CFI 3fe9c .cfa: x29 16 + .ra: .cfa -8 + ^ x29: .cfa -16 + ^
STACK CFI INIT 3fec4 1c .cfa: sp 0 + .ra: x30
STACK CFI 3fec8 .cfa: sp 16 +
STACK CFI INIT 3fee0 8c .cfa: sp 0 + .ra: x30
STACK CFI 3feec .cfa: x29 16 + .ra: .cfa -8 + ^ x29: .cfa -16 + ^
STACK CFI INIT 3ff6c 2c .cfa: sp 0 + .ra: x30
STACK CFI 3ff78 .cfa: x29 16 + .ra: .cfa -8 + ^ x29: .cfa -16 + ^
STACK CFI INIT 3ff98 2c .cfa: sp 0 + .ra: x30
STACK CFI 3ffa4 .cfa: x29 16 + .ra: .cfa -8 + ^ x29: .cfa -16 + ^
STACK CFI INIT 3ffc4 2c .cfa: sp 0 + .ra: x30
STACK CFI 3ffd0 .cfa: x29 16 + .ra: .cfa -8 + ^ x29: .cfa -16 + ^
STACK CFI INIT 3fff0 18 .cfa: sp 0 + .ra: x30
STACK CFI 3fff4 .cfa: sp 16 +
STACK CFI INIT 40008 2c .cfa: sp 0 + .ra: x30
STACK CFI 40014 .cfa: x29 16 + .ra: .cfa -8 + ^ x29: .cfa -16 + ^
STACK CFI INIT 40034 14 .cfa: sp 0 + .ra: x30
STACK CFI 40038 .cfa: sp 16 +
STACK CFI INIT 40048 14 .cfa: sp 0 + .ra: x30
STACK CFI 4004c .cfa: sp 16 +
STACK CFI INIT 4005c c8 .cfa: sp 0 + .ra: x30
STACK CFI 40068 .cfa: x29 16 + .ra: .cfa -8 + ^ x29: .cfa -16 + ^
STACK CFI INIT 40124 64 .cfa: sp 0 + .ra: x30
STACK CFI 40130 .cfa: x29 16 + .ra: .cfa -8 + ^ x29: .cfa -16 + ^
STACK CFI INIT 40188 12c .cfa: sp 0 + .ra: x30
STACK CFI 40194 .cfa: x29 16 + .ra: .cfa -8 + ^ x29: .cfa -16 + ^
STACK CFI INIT 402b4 60 .cfa: sp 0 + .ra: x30
STACK CFI 402c0 .cfa: x29 16 + .ra: .cfa -8 + ^ x29: .cfa -16 + ^
STACK CFI INIT 40314 14 .cfa: sp 0 + .ra: x30
STACK CFI 40318 .cfa: sp 16 +
STACK CFI INIT 40328 44 .cfa: sp 0 + .ra: x30
STACK CFI 40334 .cfa: x29 16 + .ra: .cfa -8 + ^ x29: .cfa -16 + ^
STACK CFI INIT 4036c 138 .cfa: sp 0 + .ra: x30
STACK CFI 40378 .cfa: x29 16 + .ra: .cfa -8 + ^ x29: .cfa -16 + ^
STACK CFI INIT 404a4 21c .cfa: sp 0 + .ra: x30
STACK CFI 404b4 .cfa: x29 16 + .ra: .cfa -8 + ^ x28: .cfa -32 + ^ x29: .cfa -16 + ^
STACK CFI INIT 406c0 138 .cfa: sp 0 + .ra: x30
STACK CFI 406cc .cfa: x29 16 + .ra: .cfa -8 + ^ x29: .cfa -16 + ^
STACK CFI INIT 407f8 1e0 .cfa: sp 0 + .ra: x30
STACK CFI 40808 .cfa: x29 16 + .ra: .cfa -8 + ^ x28: .cfa -32 + ^ x29: .cfa -16 + ^
STACK CFI INIT 409d8 2a4 .cfa: sp 0 + .ra: x30
STACK CFI 409e4 .cfa: x29 16 + .ra: .cfa -8 + ^ x29: .cfa -16 + ^
STACK CFI INIT 40c7c 160 .cfa: sp 0 + .ra: x30
STACK CFI 40c88 .cfa: x29 16 + .ra: .cfa -8 + ^ x29: .cfa -16 + ^
STACK CFI INIT 40ddc 884 .cfa: sp 0 + .ra: x30
STACK CFI 40dec .cfa: x29 16 + .ra: .cfa -8 + ^ x28: .cfa -32 + ^ x29: .cfa -16 + ^
STACK CFI INIT 41660 dc .cfa: sp 0 + .ra: x30
STACK CFI 4166c .cfa: x29 16 + .ra: .cfa -8 + ^ x29: .cfa -16 + ^
STACK CFI INIT 4173c b4 .cfa: sp 0 + .ra: x30
STACK CFI 41748 .cfa: x29 16 + .ra: .cfa -8 + ^ x29: .cfa -16 + ^
STACK CFI INIT 417f0 b4 .cfa: sp 0 + .ra: x30
STACK CFI 417fc .cfa: x29 16 + .ra: .cfa -8 + ^ x29: .cfa -16 + ^
STACK CFI INIT 418a4 a8 .cfa: sp 0 + .ra: x30
STACK CFI 418b0 .cfa: x29 16 + .ra: .cfa -8 + ^ x29: .cfa -16 + ^
STACK CFI INIT 4194c b0 .cfa: sp 0 + .ra: x30
STACK CFI 41958 .cfa: x29 16 + .ra: .cfa -8 + ^ x29: .cfa -16 + ^
STACK CFI INIT 419fc 134 .cfa: sp 0 + .ra: x30
STACK CFI 41a0c .cfa: x29 16 + .ra: .cfa -8 + ^ x28: .cfa -32 + ^ x29: .cfa -16 + ^
STACK CFI INIT 41b30 20 .cfa: sp 0 + .ra: x30
STACK CFI 41b34 .cfa: sp 16 +
STACK CFI INIT 41b50 b4 .cfa: sp 0 + .ra: x30
STACK CFI 41b5c .cfa: x29 16 + .ra: .cfa -8 + ^ x29: .cfa -16 + ^
STACK CFI INIT 41c04 24 .cfa: sp 0 + .ra: x30
STACK CFI 41c10 .cfa: x29 16 + .ra: .cfa -8 + ^ x29: .cfa -16 + ^
STACK CFI INIT 41c28 50 .cfa: sp 0 + .ra: x30
STACK CFI 41c34 .cfa: x29 16 + .ra: .cfa -8 + ^ x29: .cfa -16 + ^
STACK CFI INIT 41c78 34 .cfa: sp 0 + .ra: x30
STACK CFI 41c84 .cfa: x29 16 + .ra: .cfa -8 + ^ x29: .cfa -16 + ^
STACK CFI INIT 41cac f8 .cfa: sp 0 + .ra: x30
STACK CFI 41cb8 .cfa: x29 16 + .ra: .cfa -8 + ^ x29: .cfa -16 + ^
STACK CFI INIT 41da4 50 .cfa: sp 0 + .ra: x30
STACK CFI 41db0 .cfa: x29 16 + .ra: .cfa -8 + ^ x29: .cfa -16 + ^
STACK CFI INIT 41df4 10 .cfa: sp 0 + .ra: x30
STACK CFI 41df8 .cfa: sp 16 +
STACK CFI INIT 41e04 84 .cfa: sp 0 + .ra: x30
STACK CFI 41e10 .cfa: x29 16 + .ra: .cfa -8 + ^ x29: .cfa -16 + ^
STACK CFI INIT 41e88 84 .cfa: sp 0 + .ra: x30
STACK CFI 41e94 .cfa: x29 16 + .ra: .cfa -8 + ^ x29: .cfa -16 + ^
STACK CFI INIT 41f0c 48 .cfa: sp 0 + .ra: x30
STACK CFI 41f18 .cfa: x29 16 + .ra: .cfa -8 + ^ x29: .cfa -16 + ^
STACK CFI INIT 41f54 14 .cfa: sp 0 + .ra: x30
STACK CFI 41f58 .cfa: sp 16 +
STACK CFI INIT 41f68 54 .cfa: sp 0 + .ra: x30
STACK CFI 41f74 .cfa: x29 16 + .ra: .cfa -8 + ^ x29: .cfa -16 + ^
STACK CFI INIT 41fbc 24 .cfa: sp 0 + .ra: x30
STACK CFI 41fc8 .cfa: x29 16 + .ra: .cfa -8 + ^ x29: .cfa -16 + ^
STACK CFI INIT 41fe0 2c .cfa: sp 0 + .ra: x30
STACK CFI 41fec .cfa: x29 16 + .ra: .cfa -8 + ^ x29: .cfa -16 + ^
STACK CFI INIT 4200c 28 .cfa: sp 0 + .ra: x30
STACK CFI 42010 .cfa: sp 16 +
STACK CFI INIT 42034 ec .cfa: sp 0 + .ra: x30
STACK CFI 42040 .cfa: x29 16 + .ra: .cfa -8 + ^ x29: .cfa -16 + ^
STACK CFI INIT 42120 f8 .cfa: sp 0 + .ra: x30
STACK CFI 4212c .cfa: x29 16 + .ra: .cfa -8 + ^ x29: .cfa -16 + ^
STACK CFI INIT 42218 8c .cfa: sp 0 + .ra: x30
STACK CFI 42224 .cfa: x29 16 + .ra: .cfa -8 + ^ x29: .cfa -16 + ^
STACK CFI INIT 422a4 48 .cfa: sp 0 + .ra: x30
STACK CFI 422b0 .cfa: x29 16 + .ra: .cfa -8 + ^ x29: .cfa -16 + ^
STACK CFI INIT 422ec 2c .cfa: sp 0 + .ra: x30
STACK CFI 422f8 .cfa: x29 16 + .ra: .cfa -8 + ^ x29: .cfa -16 + ^
STACK CFI INIT 42318 24 .cfa: sp 0 + .ra: x30
STACK CFI 42324 .cfa: x29 16 + .ra: .cfa -8 + ^ x29: .cfa -16 + ^
STACK CFI INIT 4233c 14 .cfa: sp 0 + .ra: x30
STACK CFI 42340 .cfa: sp 16 +
STACK CFI INIT 42350 2c .cfa: sp 0 + .ra: x30
STACK CFI 4235c .cfa: x29 16 + .ra: .cfa -8 + ^ x29: .cfa -16 + ^
STACK CFI INIT 4237c 14 .cfa: sp 0 + .ra: x30
STACK CFI 42380 .cfa: sp 16 +
STACK CFI INIT 42390 84 .cfa: sp 0 + .ra: x30
STACK CFI 4239c .cfa: x29 16 + .ra: .cfa -8 + ^ x29: .cfa -16 + ^
STACK CFI INIT 42414 34 .cfa: sp 0 + .ra: x30
STACK CFI 42420 .cfa: x29 16 + .ra: .cfa -8 + ^ x29: .cfa -16 + ^
STACK CFI INIT 42448 2c .cfa: sp 0 + .ra: x30
STACK CFI 42454 .cfa: x29 16 + .ra: .cfa -8 + ^ x29: .cfa -16 + ^
STACK CFI INIT 42474 2c .cfa: sp 0 + .ra: x30
STACK CFI 42480 .cfa: x29 16 + .ra: .cfa -8 + ^ x29: .cfa -16 + ^
STACK CFI INIT 424a0 14 .cfa: sp 0 + .ra: x30
STACK CFI 424a4 .cfa: sp 16 +
STACK CFI INIT 424b4 3c .cfa: sp 0 + .ra: x30
STACK CFI 424c0 .cfa: x29 16 + .ra: .cfa -8 + ^ x29: .cfa -16 + ^
STACK CFI INIT 424f0 7c .cfa: sp 0 + .ra: x30
STACK CFI 424fc .cfa: x29 16 + .ra: .cfa -8 + ^ x29: .cfa -16 + ^
STACK CFI INIT 4256c d8 .cfa: sp 0 + .ra: x30
STACK CFI 42578 .cfa: x29 16 + .ra: .cfa -8 + ^ x29: .cfa -16 + ^
STACK CFI INIT 42644 2c .cfa: sp 0 + .ra: x30
STACK CFI 42650 .cfa: x29 16 + .ra: .cfa -8 + ^ x29: .cfa -16 + ^
STACK CFI INIT 42670 18 .cfa: sp 0 + .ra: x30
STACK CFI 42674 .cfa: sp 16 +
STACK CFI INIT 42688 24 .cfa: sp 0 + .ra: x30
STACK CFI 42694 .cfa: x29 16 + .ra: .cfa -8 + ^ x29: .cfa -16 + ^
STACK CFI INIT 426ac 14 .cfa: sp 0 + .ra: x30
STACK CFI 426b0 .cfa: sp 16 +
STACK CFI INIT 426c0 d4 .cfa: sp 0 + .ra: x30
STACK CFI 426cc .cfa: x29 16 + .ra: .cfa -8 + ^ x29: .cfa -16 + ^
STACK CFI INIT 42794 b0 .cfa: sp 0 + .ra: x30
STACK CFI 427a0 .cfa: x29 16 + .ra: .cfa -8 + ^ x29: .cfa -16 + ^
STACK CFI INIT 42844 88 .cfa: sp 0 + .ra: x30
STACK CFI 42850 .cfa: x29 16 + .ra: .cfa -8 + ^ x29: .cfa -16 + ^
STACK CFI INIT 428cc 2c .cfa: sp 0 + .ra: x30
STACK CFI 428d8 .cfa: x29 16 + .ra: .cfa -8 + ^ x29: .cfa -16 + ^
STACK CFI INIT 428f8 c8 .cfa: sp 0 + .ra: x30
STACK CFI 42904 .cfa: x29 16 + .ra: .cfa -8 + ^ x29: .cfa -16 + ^
STACK CFI INIT 429c0 10 .cfa: sp 0 + .ra: x30
STACK CFI 429c4 .cfa: sp 16 +
STACK CFI INIT 429d0 20 .cfa: sp 0 + .ra: x30
STACK CFI 429d4 .cfa: sp 48 +
STACK CFI INIT 429f0 28 .cfa: sp 0 + .ra: x30
STACK CFI 429fc .cfa: x29 16 + .ra: .cfa -8 + ^ x29: .cfa -16 + ^
STACK CFI INIT 42a18 14 .cfa: sp 0 + .ra: x30
STACK CFI 42a1c .cfa: sp 16 +
STACK CFI INIT 42a2c 64 .cfa: sp 0 + .ra: x30
STACK CFI 42a38 .cfa: x29 16 + .ra: .cfa -8 + ^ x29: .cfa -16 + ^
STACK CFI INIT 42a90 24 .cfa: sp 0 + .ra: x30
STACK CFI 42a9c .cfa: x29 16 + .ra: .cfa -8 + ^ x29: .cfa -16 + ^
STACK CFI INIT 42ab4 60 .cfa: sp 0 + .ra: x30
STACK CFI 42ac0 .cfa: x29 16 + .ra: .cfa -8 + ^ x29: .cfa -16 + ^
STACK CFI INIT 42b14 14 .cfa: sp 0 + .ra: x30
STACK CFI 42b18 .cfa: sp 16 +
STACK CFI INIT 42b28 58 .cfa: sp 0 + .ra: x30
STACK CFI 42b34 .cfa: x29 16 + .ra: .cfa -8 + ^ x29: .cfa -16 + ^
STACK CFI INIT 42b80 14 .cfa: sp 0 + .ra: x30
STACK CFI 42b84 .cfa: sp 16 +
STACK CFI INIT 42b94 14 .cfa: sp 0 + .ra: x30
STACK CFI 42b98 .cfa: sp 16 +
STACK CFI INIT 42ba8 24 .cfa: sp 0 + .ra: x30
STACK CFI 42bb4 .cfa: x29 16 + .ra: .cfa -8 + ^ x29: .cfa -16 + ^
STACK CFI INIT 42bcc 28 .cfa: sp 0 + .ra: x30
STACK CFI 42bd8 .cfa: x29 16 + .ra: .cfa -8 + ^ x29: .cfa -16 + ^
STACK CFI INIT 42bf4 3c .cfa: sp 0 + .ra: x30
STACK CFI 42c00 .cfa: x29 16 + .ra: .cfa -8 + ^ x29: .cfa -16 + ^
STACK CFI INIT 42c30 48 .cfa: sp 0 + .ra: x30
STACK CFI 42c3c .cfa: x29 16 + .ra: .cfa -8 + ^ x29: .cfa -16 + ^
STACK CFI INIT 42c78 34 .cfa: sp 0 + .ra: x30
STACK CFI 42c84 .cfa: x29 16 + .ra: .cfa -8 + ^ x29: .cfa -16 + ^
STACK CFI INIT 42cac 9c .cfa: sp 0 + .ra: x30
STACK CFI 42cb8 .cfa: x29 16 + .ra: .cfa -8 + ^ x29: .cfa -16 + ^
STACK CFI INIT 42d48 34 .cfa: sp 0 + .ra: x30
STACK CFI 42d54 .cfa: x29 16 + .ra: .cfa -8 + ^ x29: .cfa -16 + ^
STACK CFI INIT 42d7c 34 .cfa: sp 0 + .ra: x30
STACK CFI 42d88 .cfa: x29 16 + .ra: .cfa -8 + ^ x29: .cfa -16 + ^
STACK CFI INIT 42db0 14 .cfa: sp 0 + .ra: x30
STACK CFI 42db4 .cfa: sp 16 +
STACK CFI INIT 42dc4 18 .cfa: sp 0 + .ra: x30
STACK CFI 42dc8 .cfa: sp 32 +
STACK CFI INIT 42ddc 2c .cfa: sp 0 + .ra: x30
STACK CFI 42de8 .cfa: x29 16 + .ra: .cfa -8 + ^ x29: .cfa -16 + ^
STACK CFI INIT 42e08 24 .cfa: sp 0 + .ra: x30
STACK CFI 42e14 .cfa: x29 16 + .ra: .cfa -8 + ^ x29: .cfa -16 + ^
STACK CFI INIT 42e2c 84 .cfa: sp 0 + .ra: x30
STACK CFI 42e38 .cfa: x29 16 + .ra: .cfa -8 + ^ x29: .cfa -16 + ^
STACK CFI INIT 42eb0 2c .cfa: sp 0 + .ra: x30
STACK CFI 42ebc .cfa: x29 16 + .ra: .cfa -8 + ^ x29: .cfa -16 + ^
STACK CFI INIT 42edc a0 .cfa: sp 0 + .ra: x30
STACK CFI 42ee8 .cfa: x29 16 + .ra: .cfa -8 + ^ x29: .cfa -16 + ^
STACK CFI INIT 42f7c 1c8 .cfa: sp 0 + .ra: x30
STACK CFI 42f88 .cfa: x29 16 + .ra: .cfa -8 + ^ x29: .cfa -16 + ^
STACK CFI INIT 43144 3c .cfa: sp 0 + .ra: x30
STACK CFI 43150 .cfa: x29 16 + .ra: .cfa -8 + ^ x29: .cfa -16 + ^
STACK CFI INIT 43180 28 .cfa: sp 0 + .ra: x30
STACK CFI 4318c .cfa: x29 16 + .ra: .cfa -8 + ^ x29: .cfa -16 + ^
STACK CFI INIT 431a8 6c .cfa: sp 0 + .ra: x30
STACK CFI 431b4 .cfa: x29 16 + .ra: .cfa -8 + ^ x29: .cfa -16 + ^
STACK CFI INIT 43214 6c .cfa: sp 0 + .ra: x30
STACK CFI 43220 .cfa: x29 16 + .ra: .cfa -8 + ^ x29: .cfa -16 + ^
STACK CFI INIT 43280 50 .cfa: sp 0 + .ra: x30
STACK CFI 4328c .cfa: x29 16 + .ra: .cfa -8 + ^ x29: .cfa -16 + ^
STACK CFI INIT 432d0 9c .cfa: sp 0 + .ra: x30
STACK CFI 432dc .cfa: x29 16 + .ra: .cfa -8 + ^ x29: .cfa -16 + ^
STACK CFI INIT 4336c 1c .cfa: sp 0 + .ra: x30
STACK CFI 43370 .cfa: sp 16 +
STACK CFI INIT 43388 18 .cfa: sp 0 + .ra: x30
STACK CFI 4338c .cfa: sp 16 +
STACK CFI INIT 433a0 4c .cfa: sp 0 + .ra: x30
STACK CFI 433ac .cfa: x29 16 + .ra: .cfa -8 + ^ x29: .cfa -16 + ^
STACK CFI INIT 433ec a08 .cfa: sp 0 + .ra: x30
STACK CFI 433fc .cfa: x29 16 + .ra: .cfa -8 + ^ x28: .cfa -32 + ^ x29: .cfa -16 + ^
STACK CFI INIT 43df4 100 .cfa: sp 0 + .ra: x30
STACK CFI 43e00 .cfa: x29 16 + .ra: .cfa -8 + ^ x29: .cfa -16 + ^
STACK CFI INIT 43ef4 49c .cfa: sp 0 + .ra: x30
STACK CFI 43f04 .cfa: x29 16 + .ra: .cfa -8 + ^ x28: .cfa -32 + ^ x29: .cfa -16 + ^
STACK CFI INIT 44390 204 .cfa: sp 0 + .ra: x30
STACK CFI 4439c .cfa: x29 16 + .ra: .cfa -8 + ^ x29: .cfa -16 + ^
STACK CFI INIT 44594 240 .cfa: sp 0 + .ra: x30
STACK CFI 445a0 .cfa: x29 16 + .ra: .cfa -8 + ^ x29: .cfa -16 + ^
STACK CFI INIT 447d4 1dc .cfa: sp 0 + .ra: x30
STACK CFI 447e4 .cfa: x29 16 + .ra: .cfa -8 + ^ x28: .cfa -32 + ^ x29: .cfa -16 + ^
STACK CFI INIT 449b0 188 .cfa: sp 0 + .ra: x30
STACK CFI 449bc .cfa: x29 16 + .ra: .cfa -8 + ^ x29: .cfa -16 + ^
STACK CFI INIT 44b38 300 .cfa: sp 0 + .ra: x30
STACK CFI 44b44 .cfa: x29 16 + .ra: .cfa -8 + ^ x29: .cfa -16 + ^
STACK CFI INIT 44e38 38 .cfa: sp 0 + .ra: x30
STACK CFI 44e3c .cfa: sp 16 +
STACK CFI INIT 44e70 d4 .cfa: sp 0 + .ra: x30
STACK CFI 44e80 .cfa: x29 16 + .ra: .cfa -8 + ^ x28: .cfa -32 + ^ x29: .cfa -16 + ^
STACK CFI INIT 44f44 928 .cfa: sp 0 + .ra: x30
STACK CFI 44f54 .cfa: x29 16 + .ra: .cfa -8 + ^ x28: .cfa -32 + ^ x29: .cfa -16 + ^
STACK CFI INIT 4586c 4c .cfa: sp 0 + .ra: x30
STACK CFI 45878 .cfa: x29 16 + .ra: .cfa -8 + ^ x29: .cfa -16 + ^
STACK CFI INIT 458b8 18 .cfa: sp 0 + .ra: x30
STACK CFI 458bc .cfa: sp 16 +
STACK CFI INIT 458d0 8 .cfa: sp 0 + .ra: x30
STACK CFI INIT 458d8 8 .cfa: sp 0 + .ra: x30
STACK CFI INIT 458e0 68 .cfa: sp 0 + .ra: x30
STACK CFI 458ec .cfa: x29 16 + .ra: .cfa -8 + ^ x29: .cfa -16 + ^
STACK CFI INIT 45948 1c .cfa: sp 0 + .ra: x30
STACK CFI 4594c .cfa: sp 16 +
STACK CFI INIT 45964 3c .cfa: sp 0 + .ra: x30
STACK CFI 45970 .cfa: x29 16 + .ra: .cfa -8 + ^ x29: .cfa -16 + ^
STACK CFI INIT 459a0 b4 .cfa: sp 0 + .ra: x30
STACK CFI 459ac .cfa: x29 16 + .ra: .cfa -8 + ^ x29: .cfa -16 + ^
STACK CFI INIT 45a54 30 .cfa: sp 0 + .ra: x30
STACK CFI 45a58 .cfa: sp 16 +
STACK CFI INIT 45a84 1c .cfa: sp 0 + .ra: x30
STACK CFI 45a88 .cfa: sp 16 +
STACK CFI INIT 45aa0 30 .cfa: sp 0 + .ra: x30
STACK CFI 45aa4 .cfa: sp 16 +
STACK CFI INIT 45ad0 348 .cfa: sp 0 + .ra: x30
STACK CFI 45adc .cfa: x29 16 + .ra: .cfa -8 + ^ x29: .cfa -16 + ^
STACK CFI INIT 45e18 4c .cfa: sp 0 + .ra: x30
STACK CFI 45e24 .cfa: x29 16 + .ra: .cfa -8 + ^ x29: .cfa -16 + ^
STACK CFI INIT 45e64 40 .cfa: sp 0 + .ra: x30
STACK CFI 45e70 .cfa: x29 16 + .ra: .cfa -8 + ^ x29: .cfa -16 + ^
STACK CFI INIT 45ea4 fc .cfa: sp 0 + .ra: x30
STACK CFI 45eb0 .cfa: x29 16 + .ra: .cfa -8 + ^ x29: .cfa -16 + ^
STACK CFI INIT 45fa0 6c .cfa: sp 0 + .ra: x30
STACK CFI 45fac .cfa: x29 16 + .ra: .cfa -8 + ^ x29: .cfa -16 + ^
STACK CFI INIT 4600c 50 .cfa: sp 0 + .ra: x30
STACK CFI 46018 .cfa: x29 16 + .ra: .cfa -8 + ^ x29: .cfa -16 + ^
STACK CFI INIT 4605c 1c .cfa: sp 0 + .ra: x30
STACK CFI 46060 .cfa: sp 16 +
STACK CFI INIT 46078 4c .cfa: sp 0 + .ra: x30
STACK CFI 46084 .cfa: x29 16 + .ra: .cfa -8 + ^ x29: .cfa -16 + ^
STACK CFI INIT 460c4 ec .cfa: sp 0 + .ra: x30
STACK CFI 460d0 .cfa: x29 16 + .ra: .cfa -8 + ^ x29: .cfa -16 + ^
STACK CFI INIT 461b0 4c .cfa: sp 0 + .ra: x30
STACK CFI 461bc .cfa: x29 16 + .ra: .cfa -8 + ^ x29: .cfa -16 + ^
STACK CFI INIT 461fc 8 .cfa: sp 0 + .ra: x30
STACK CFI INIT 46204 18 .cfa: sp 0 + .ra: x30
STACK CFI 46208 .cfa: sp 32 +
STACK CFI INIT 4621c 64 .cfa: sp 0 + .ra: x30
STACK CFI 46228 .cfa: x29 16 + .ra: .cfa -8 + ^ x29: .cfa -16 + ^
STACK CFI INIT 46280 10 .cfa: sp 0 + .ra: x30
STACK CFI 46284 .cfa: sp 16 +
STACK CFI INIT 46290 12c .cfa: sp 0 + .ra: x30
STACK CFI 4629c .cfa: x29 16 + .ra: .cfa -8 + ^ x29: .cfa -16 + ^
STACK CFI INIT 463bc 60 .cfa: sp 0 + .ra: x30
STACK CFI 463c8 .cfa: x29 16 + .ra: .cfa -8 + ^ x29: .cfa -16 + ^
STACK CFI INIT 4641c 14 .cfa: sp 0 + .ra: x30
STACK CFI 46420 .cfa: sp 16 +
STACK CFI INIT 46430 58 .cfa: sp 0 + .ra: x30
STACK CFI 4643c .cfa: x29 16 + .ra: .cfa -8 + ^ x29: .cfa -16 + ^
STACK CFI INIT 46488 e4 .cfa: sp 0 + .ra: x30
STACK CFI 46494 .cfa: x29 16 + .ra: .cfa -8 + ^ x29: .cfa -16 + ^
STACK CFI INIT 4656c 8c .cfa: sp 0 + .ra: x30
STACK CFI 46578 .cfa: x29 16 + .ra: .cfa -8 + ^ x29: .cfa -16 + ^
STACK CFI INIT 465f8 2c .cfa: sp 0 + .ra: x30
STACK CFI 46604 .cfa: x29 16 + .ra: .cfa -8 + ^ x29: .cfa -16 + ^
STACK CFI INIT 46624 2c .cfa: sp 0 + .ra: x30
STACK CFI 46630 .cfa: x29 16 + .ra: .cfa -8 + ^ x29: .cfa -16 + ^
STACK CFI INIT 46650 2c .cfa: sp 0 + .ra: x30
STACK CFI 4665c .cfa: x29 16 + .ra: .cfa -8 + ^ x29: .cfa -16 + ^
STACK CFI INIT 4667c 18 .cfa: sp 0 + .ra: x30
STACK CFI 46680 .cfa: sp 16 +
STACK CFI INIT 46694 2c .cfa: sp 0 + .ra: x30
STACK CFI 466a0 .cfa: x29 16 + .ra: .cfa -8 + ^ x29: .cfa -16 + ^
STACK CFI INIT 466c0 14 .cfa: sp 0 + .ra: x30
STACK CFI 466c4 .cfa: sp 16 +
STACK CFI INIT 466d4 8 .cfa: sp 0 + .ra: x30
STACK CFI INIT 466dc 68 .cfa: sp 0 + .ra: x30
STACK CFI 466e8 .cfa: x29 16 + .ra: .cfa -8 + ^ x29: .cfa -16 + ^
STACK CFI INIT 46744 68 .cfa: sp 0 + .ra: x30
STACK CFI 46750 .cfa: x29 16 + .ra: .cfa -8 + ^ x29: .cfa -16 + ^
STACK CFI INIT 467ac 28 .cfa: sp 0 + .ra: x30
STACK CFI 467b8 .cfa: x29 16 + .ra: .cfa -8 + ^ x29: .cfa -16 + ^
STACK CFI INIT 467d4 8c .cfa: sp 0 + .ra: x30
STACK CFI 467d8 .cfa: sp 16 +
STACK CFI INIT 46860 14c .cfa: sp 0 + .ra: x30
STACK CFI 4686c .cfa: x29 16 + .ra: .cfa -8 + ^ x29: .cfa -16 + ^
STACK CFI INIT 469ac 50 .cfa: sp 0 + .ra: x30
STACK CFI 469b8 .cfa: x29 16 + .ra: .cfa -8 + ^ x29: .cfa -16 + ^
STACK CFI INIT 469fc 378 .cfa: sp 0 + .ra: x30
STACK CFI 46a0c .cfa: x29 16 + .ra: .cfa -8 + ^ x28: .cfa -32 + ^ x29: .cfa -16 + ^
STACK CFI INIT 46d74 34 .cfa: sp 0 + .ra: x30
STACK CFI 46d78 .cfa: sp 16 +
STACK CFI INIT 46da8 38 .cfa: sp 0 + .ra: x30
STACK CFI 46db4 .cfa: x29 16 + .ra: .cfa -8 + ^ x29: .cfa -16 + ^
STACK CFI INIT 46de0 48 .cfa: sp 0 + .ra: x30
STACK CFI 46dec .cfa: x29 16 + .ra: .cfa -8 + ^ x29: .cfa -16 + ^
STACK CFI INIT 46e28 38 .cfa: sp 0 + .ra: x30
STACK CFI 46e34 .cfa: x29 16 + .ra: .cfa -8 + ^ x29: .cfa -16 + ^
STACK CFI INIT 46e60 3c .cfa: sp 0 + .ra: x30
STACK CFI 46e6c .cfa: x29 16 + .ra: .cfa -8 + ^ x29: .cfa -16 + ^
STACK CFI INIT 46e9c 28 .cfa: sp 0 + .ra: x30
STACK CFI 46ea0 .cfa: sp 16 +
STACK CFI INIT 46ec4 68 .cfa: sp 0 + .ra: x30
STACK CFI 46ed0 .cfa: x29 16 + .ra: .cfa -8 + ^ x29: .cfa -16 + ^
STACK CFI INIT 46f2c 20 .cfa: sp 0 + .ra: x30
STACK CFI 46f30 .cfa: sp 16 +
STACK CFI INIT 46f4c 38 .cfa: sp 0 + .ra: x30
STACK CFI 46f50 .cfa: sp 16 +
STACK CFI INIT 46f84 74 .cfa: sp 0 + .ra: x30
STACK CFI 46f90 .cfa: x29 16 + .ra: .cfa -8 + ^ x29: .cfa -16 + ^
STACK CFI INIT 46ff8 24 .cfa: sp 0 + .ra: x30
STACK CFI 47004 .cfa: x29 16 + .ra: .cfa -8 + ^ x29: .cfa -16 + ^
STACK CFI INIT 4701c 14 .cfa: sp 0 + .ra: x30
STACK CFI 47020 .cfa: sp 16 +
STACK CFI INIT 47030 30 .cfa: sp 0 + .ra: x30
STACK CFI 47034 .cfa: sp 16 +
STACK CFI INIT 47060 6c .cfa: sp 0 + .ra: x30
STACK CFI 4706c .cfa: x29 16 + .ra: .cfa -8 + ^ x29: .cfa -16 + ^
STACK CFI INIT 470cc 50 .cfa: sp 0 + .ra: x30
STACK CFI 470d8 .cfa: x29 16 + .ra: .cfa -8 + ^ x29: .cfa -16 + ^
STACK CFI INIT 4711c 1c .cfa: sp 0 + .ra: x30
STACK CFI 47120 .cfa: sp 16 +
STACK CFI INIT 47138 18 .cfa: sp 0 + .ra: x30
STACK CFI 4713c .cfa: sp 16 +
STACK CFI INIT 47150 4c .cfa: sp 0 + .ra: x30
STACK CFI 4715c .cfa: x29 16 + .ra: .cfa -8 + ^ x29: .cfa -16 + ^
STACK CFI INIT 4719c 8 .cfa: sp 0 + .ra: x30
STACK CFI INIT 471a4 68 .cfa: sp 0 + .ra: x30
STACK CFI 471b0 .cfa: x29 16 + .ra: .cfa -8 + ^ x29: .cfa -16 + ^
STACK CFI INIT 4720c 6c .cfa: sp 0 + .ra: x30
STACK CFI 47218 .cfa: x29 16 + .ra: .cfa -8 + ^ x29: .cfa -16 + ^
STACK CFI INIT 47278 50 .cfa: sp 0 + .ra: x30
STACK CFI 47284 .cfa: x29 16 + .ra: .cfa -8 + ^ x29: .cfa -16 + ^
STACK CFI INIT 472c8 1c .cfa: sp 0 + .ra: x30
STACK CFI 472cc .cfa: sp 16 +
STACK CFI INIT 472e4 6ac .cfa: sp 0 + .ra: x30
STACK CFI 472f4 .cfa: x29 16 + .ra: .cfa -8 + ^ x28: .cfa -32 + ^ x29: .cfa -16 + ^
STACK CFI INIT 47990 2bc .cfa: sp 0 + .ra: x30
STACK CFI 479a0 .cfa: x29 16 + .ra: .cfa -8 + ^ x28: .cfa -32 + ^ x29: .cfa -16 + ^
STACK CFI INIT 47c4c 4c .cfa: sp 0 + .ra: x30
STACK CFI 47c58 .cfa: x29 16 + .ra: .cfa -8 + ^ x29: .cfa -16 + ^
STACK CFI INIT 47c98 8 .cfa: sp 0 + .ra: x30
STACK CFI INIT 47ca0 30 .cfa: sp 0 + .ra: x30
STACK CFI 47cac .cfa: x29 16 + .ra: .cfa -8 + ^ x29: .cfa -16 + ^
STACK CFI INIT 47cd0 3c .cfa: sp 0 + .ra: x30
STACK CFI 47cdc .cfa: x29 16 + .ra: .cfa -8 + ^ x29: .cfa -16 + ^
STACK CFI INIT 47d0c 2c0 .cfa: sp 0 + .ra: x30
STACK CFI 47d1c .cfa: x29 16 + .ra: .cfa -8 + ^ x28: .cfa -32 + ^ x29: .cfa -16 + ^
STACK CFI INIT 47fcc 88 .cfa: sp 0 + .ra: x30
STACK CFI 47fd8 .cfa: x29 16 + .ra: .cfa -8 + ^ x29: .cfa -16 + ^
STACK CFI INIT 48054 7c .cfa: sp 0 + .ra: x30
STACK CFI 48058 .cfa: sp 32 +
STACK CFI INIT 480d0 88 .cfa: sp 0 + .ra: x30
STACK CFI 480d4 .cfa: sp 48 +
STACK CFI INIT 48158 4c .cfa: sp 0 + .ra: x30
STACK CFI 48164 .cfa: x29 16 + .ra: .cfa -8 + ^ x29: .cfa -16 + ^
STACK CFI INIT 481a4 22c .cfa: sp 0 + .ra: x30
STACK CFI 481b0 .cfa: x29 16 + .ra: .cfa -8 + ^ x29: .cfa -16 + ^
STACK CFI INIT 483d0 80 .cfa: sp 0 + .ra: x30
STACK CFI 483dc .cfa: x29 16 + .ra: .cfa -8 + ^ x29: .cfa -16 + ^
STACK CFI INIT 48450 90 .cfa: sp 0 + .ra: x30
STACK CFI 4845c .cfa: x29 16 + .ra: .cfa -8 + ^ x29: .cfa -16 + ^
STACK CFI INIT 484e0 b8 .cfa: sp 0 + .ra: x30
STACK CFI 484ec .cfa: x29 16 + .ra: .cfa -8 + ^ x29: .cfa -16 + ^
STACK CFI INIT 48598 a8 .cfa: sp 0 + .ra: x30
STACK CFI 485a4 .cfa: x29 16 + .ra: .cfa -8 + ^ x29: .cfa -16 + ^
STACK CFI INIT 48640 80 .cfa: sp 0 + .ra: x30
STACK CFI 48644 .cfa: sp 32 +
STACK CFI INIT 486c0 98 .cfa: sp 0 + .ra: x30
STACK CFI 486cc .cfa: x29 16 + .ra: .cfa -8 + ^ x29: .cfa -16 + ^
STACK CFI INIT 48758 68 .cfa: sp 0 + .ra: x30
STACK CFI 48764 .cfa: x29 16 + .ra: .cfa -8 + ^ x29: .cfa -16 + ^
STACK CFI INIT 487c0 1c .cfa: sp 0 + .ra: x30
STACK CFI 487c4 .cfa: sp 16 +
STACK CFI INIT 487dc 30 .cfa: sp 0 + .ra: x30
STACK CFI 487e0 .cfa: sp 16 +
STACK CFI INIT 4880c 64 .cfa: sp 0 + .ra: x30
STACK CFI 48818 .cfa: x29 16 + .ra: .cfa -8 + ^ x29: .cfa -16 + ^
STACK CFI INIT 48870 9c .cfa: sp 0 + .ra: x30
STACK CFI 4887c .cfa: x29 16 + .ra: .cfa -8 + ^ x29: .cfa -16 + ^
STACK CFI INIT 4890c 100 .cfa: sp 0 + .ra: x30
STACK CFI 48918 .cfa: x29 16 + .ra: .cfa -8 + ^ x29: .cfa -16 + ^
STACK CFI INIT 48a0c 4c .cfa: sp 0 + .ra: x30
STACK CFI 48a18 .cfa: x29 16 + .ra: .cfa -8 + ^ x29: .cfa -16 + ^
STACK CFI INIT 48a58 6c .cfa: sp 0 + .ra: x30
STACK CFI 48a64 .cfa: x29 16 + .ra: .cfa -8 + ^ x29: .cfa -16 + ^
STACK CFI INIT 48ac4 b4 .cfa: sp 0 + .ra: x30
STACK CFI 48ad0 .cfa: x29 16 + .ra: .cfa -8 + ^ x29: .cfa -16 + ^
STACK CFI INIT 48b78 1c .cfa: sp 0 + .ra: x30
STACK CFI 48b7c .cfa: sp 16 +
STACK CFI INIT 48b94 b4 .cfa: sp 0 + .ra: x30
STACK CFI 48ba0 .cfa: x29 16 + .ra: .cfa -8 + ^ x29: .cfa -16 + ^
STACK CFI INIT 48c48 94 .cfa: sp 0 + .ra: x30
STACK CFI 48c54 .cfa: x29 16 + .ra: .cfa -8 + ^ x29: .cfa -16 + ^
STACK CFI INIT 48cdc 24 .cfa: sp 0 + .ra: x30
STACK CFI 48ce0 .cfa: sp 16 +
STACK CFI INIT 48d00 ec .cfa: sp 0 + .ra: x30
STACK CFI 48d0c .cfa: x29 16 + .ra: .cfa -8 + ^ x29: .cfa -16 + ^
STACK CFI INIT 48dec 24 .cfa: sp 0 + .ra: x30
STACK CFI 48df8 .cfa: x29 16 + .ra: .cfa -8 + ^ x29: .cfa -16 + ^
STACK CFI INIT 48e10 4c .cfa: sp 0 + .ra: x30
STACK CFI 48e1c .cfa: x29 16 + .ra: .cfa -8 + ^ x29: .cfa -16 + ^
STACK CFI INIT 48e5c 8 .cfa: sp 0 + .ra: x30
STACK CFI INIT 48e64 68 .cfa: sp 0 + .ra: x30
STACK CFI 48e70 .cfa: x29 16 + .ra: .cfa -8 + ^ x29: .cfa -16 + ^
STACK CFI INIT 48ecc 8 .cfa: sp 0 + .ra: x30
STACK CFI INIT 48ed4 50 .cfa: sp 0 + .ra: x30
STACK CFI 48ee0 .cfa: x29 16 + .ra: .cfa -8 + ^ x29: .cfa -16 + ^
STACK CFI INIT 48f24 34 .cfa: sp 0 + .ra: x30
STACK CFI 48f30 .cfa: x29 16 + .ra: .cfa -8 + ^ x29: .cfa -16 + ^
STACK CFI INIT 48f58 f8 .cfa: sp 0 + .ra: x30
STACK CFI 48f64 .cfa: x29 16 + .ra: .cfa -8 + ^ x29: .cfa -16 + ^
STACK CFI INIT 49050 50 .cfa: sp 0 + .ra: x30
STACK CFI 4905c .cfa: x29 16 + .ra: .cfa -8 + ^ x29: .cfa -16 + ^
STACK CFI INIT 490a0 84 .cfa: sp 0 + .ra: x30
STACK CFI 490ac .cfa: x29 16 + .ra: .cfa -8 + ^ x29: .cfa -16 + ^
STACK CFI INIT 49124 84 .cfa: sp 0 + .ra: x30
STACK CFI 49130 .cfa: x29 16 + .ra: .cfa -8 + ^ x29: .cfa -16 + ^
STACK CFI INIT 491a8 48 .cfa: sp 0 + .ra: x30
STACK CFI 491b4 .cfa: x29 16 + .ra: .cfa -8 + ^ x29: .cfa -16 + ^
STACK CFI INIT 491f0 14 .cfa: sp 0 + .ra: x30
STACK CFI 491f4 .cfa: sp 16 +
STACK CFI INIT 49204 54 .cfa: sp 0 + .ra: x30
STACK CFI 49210 .cfa: x29 16 + .ra: .cfa -8 + ^ x29: .cfa -16 + ^
STACK CFI INIT 49258 24 .cfa: sp 0 + .ra: x30
STACK CFI 49264 .cfa: x29 16 + .ra: .cfa -8 + ^ x29: .cfa -16 + ^
STACK CFI INIT 4927c 2c .cfa: sp 0 + .ra: x30
STACK CFI 49288 .cfa: x29 16 + .ra: .cfa -8 + ^ x29: .cfa -16 + ^
STACK CFI INIT 492a8 20 .cfa: sp 0 + .ra: x30
STACK CFI 492ac .cfa: sp 16 +
STACK CFI INIT 492c8 ec .cfa: sp 0 + .ra: x30
STACK CFI 492d4 .cfa: x29 16 + .ra: .cfa -8 + ^ x29: .cfa -16 + ^
STACK CFI INIT 493b4 f8 .cfa: sp 0 + .ra: x30
STACK CFI 493c0 .cfa: x29 16 + .ra: .cfa -8 + ^ x29: .cfa -16 + ^
STACK CFI INIT 494ac 8c .cfa: sp 0 + .ra: x30
STACK CFI 494b8 .cfa: x29 16 + .ra: .cfa -8 + ^ x29: .cfa -16 + ^
STACK CFI INIT 49538 38 .cfa: sp 0 + .ra: x30
STACK CFI 49544 .cfa: x29 16 + .ra: .cfa -8 + ^ x29: .cfa -16 + ^
STACK CFI INIT 49570 2c .cfa: sp 0 + .ra: x30
STACK CFI 4957c .cfa: x29 16 + .ra: .cfa -8 + ^ x29: .cfa -16 + ^
STACK CFI INIT 4959c 24 .cfa: sp 0 + .ra: x30
STACK CFI 495a8 .cfa: x29 16 + .ra: .cfa -8 + ^ x29: .cfa -16 + ^
STACK CFI INIT 495c0 14 .cfa: sp 0 + .ra: x30
STACK CFI 495c4 .cfa: sp 16 +
STACK CFI INIT 495d4 2c .cfa: sp 0 + .ra: x30
STACK CFI 495e0 .cfa: x29 16 + .ra: .cfa -8 + ^ x29: .cfa -16 + ^
STACK CFI INIT 49600 14 .cfa: sp 0 + .ra: x30
STACK CFI 49604 .cfa: sp 16 +
STACK CFI INIT 49614 84 .cfa: sp 0 + .ra: x30
STACK CFI 49620 .cfa: x29 16 + .ra: .cfa -8 + ^ x29: .cfa -16 + ^
STACK CFI INIT 49698 34 .cfa: sp 0 + .ra: x30
STACK CFI 496a4 .cfa: x29 16 + .ra: .cfa -8 + ^ x29: .cfa -16 + ^
STACK CFI INIT 496cc 2c .cfa: sp 0 + .ra: x30
STACK CFI 496d8 .cfa: x29 16 + .ra: .cfa -8 + ^ x29: .cfa -16 + ^
STACK CFI INIT 496f8 2c .cfa: sp 0 + .ra: x30
STACK CFI 49704 .cfa: x29 16 + .ra: .cfa -8 + ^ x29: .cfa -16 + ^
STACK CFI INIT 49724 14 .cfa: sp 0 + .ra: x30
STACK CFI 49728 .cfa: sp 16 +
STACK CFI INIT 49738 3c .cfa: sp 0 + .ra: x30
STACK CFI 49744 .cfa: x29 16 + .ra: .cfa -8 + ^ x29: .cfa -16 + ^
STACK CFI INIT 49774 7c .cfa: sp 0 + .ra: x30
STACK CFI 49780 .cfa: x29 16 + .ra: .cfa -8 + ^ x29: .cfa -16 + ^
STACK CFI INIT 497f0 2c .cfa: sp 0 + .ra: x30
STACK CFI 497fc .cfa: x29 16 + .ra: .cfa -8 + ^ x29: .cfa -16 + ^
STACK CFI INIT 4981c 18 .cfa: sp 0 + .ra: x30
STACK CFI 49820 .cfa: sp 16 +
STACK CFI INIT 49834 24 .cfa: sp 0 + .ra: x30
STACK CFI 49840 .cfa: x29 16 + .ra: .cfa -8 + ^ x29: .cfa -16 + ^
STACK CFI INIT 49858 14 .cfa: sp 0 + .ra: x30
STACK CFI 4985c .cfa: sp 16 +
STACK CFI INIT 4986c b4 .cfa: sp 0 + .ra: x30
STACK CFI 49878 .cfa: x29 16 + .ra: .cfa -8 + ^ x29: .cfa -16 + ^
STACK CFI INIT 49920 b0 .cfa: sp 0 + .ra: x30
STACK CFI 4992c .cfa: x29 16 + .ra: .cfa -8 + ^ x29: .cfa -16 + ^
STACK CFI INIT 499d0 88 .cfa: sp 0 + .ra: x30
STACK CFI 499dc .cfa: x29 16 + .ra: .cfa -8 + ^ x29: .cfa -16 + ^
STACK CFI INIT 49a58 2c .cfa: sp 0 + .ra: x30
STACK CFI 49a64 .cfa: x29 16 + .ra: .cfa -8 + ^ x29: .cfa -16 + ^
STACK CFI INIT 49a84 ac .cfa: sp 0 + .ra: x30
STACK CFI 49a90 .cfa: x29 16 + .ra: .cfa -8 + ^ x29: .cfa -16 + ^
STACK CFI INIT 49b30 10 .cfa: sp 0 + .ra: x30
STACK CFI 49b34 .cfa: sp 16 +
STACK CFI INIT 49b40 20 .cfa: sp 0 + .ra: x30
STACK CFI 49b44 .cfa: sp 48 +
STACK CFI INIT 49b60 28 .cfa: sp 0 + .ra: x30
STACK CFI 49b6c .cfa: x29 16 + .ra: .cfa -8 + ^ x29: .cfa -16 + ^
STACK CFI INIT 49b88 64 .cfa: sp 0 + .ra: x30
STACK CFI 49b94 .cfa: x29 16 + .ra: .cfa -8 + ^ x29: .cfa -16 + ^
STACK CFI INIT 49bec 24 .cfa: sp 0 + .ra: x30
STACK CFI 49bf8 .cfa: x29 16 + .ra: .cfa -8 + ^ x29: .cfa -16 + ^
STACK CFI INIT 49c10 60 .cfa: sp 0 + .ra: x30
STACK CFI 49c1c .cfa: x29 16 + .ra: .cfa -8 + ^ x29: .cfa -16 + ^
STACK CFI INIT 49c70 14 .cfa: sp 0 + .ra: x30
STACK CFI 49c74 .cfa: sp 16 +
STACK CFI INIT 49c84 44 .cfa: sp 0 + .ra: x30
STACK CFI 49c90 .cfa: x29 16 + .ra: .cfa -8 + ^ x29: .cfa -16 + ^
STACK CFI INIT 49cc8 14 .cfa: sp 0 + .ra: x30
STACK CFI 49ccc .cfa: sp 16 +
STACK CFI INIT 49cdc 14 .cfa: sp 0 + .ra: x30
STACK CFI 49ce0 .cfa: sp 16 +
STACK CFI INIT 49cf0 24 .cfa: sp 0 + .ra: x30
STACK CFI 49cfc .cfa: x29 16 + .ra: .cfa -8 + ^ x29: .cfa -16 + ^
STACK CFI INIT 49d14 28 .cfa: sp 0 + .ra: x30
STACK CFI 49d20 .cfa: x29 16 + .ra: .cfa -8 + ^ x29: .cfa -16 + ^
STACK CFI INIT 49d3c 3c .cfa: sp 0 + .ra: x30
STACK CFI 49d48 .cfa: x29 16 + .ra: .cfa -8 + ^ x29: .cfa -16 + ^
STACK CFI INIT 49d78 38 .cfa: sp 0 + .ra: x30
STACK CFI 49d84 .cfa: x29 16 + .ra: .cfa -8 + ^ x29: .cfa -16 + ^
STACK CFI INIT 49db0 34 .cfa: sp 0 + .ra: x30
STACK CFI 49dbc .cfa: x29 16 + .ra: .cfa -8 + ^ x29: .cfa -16 + ^
STACK CFI INIT 49de4 9c .cfa: sp 0 + .ra: x30
STACK CFI 49df0 .cfa: x29 16 + .ra: .cfa -8 + ^ x29: .cfa -16 + ^
STACK CFI INIT 49e80 34 .cfa: sp 0 + .ra: x30
STACK CFI 49e8c .cfa: x29 16 + .ra: .cfa -8 + ^ x29: .cfa -16 + ^
STACK CFI INIT 49eb4 34 .cfa: sp 0 + .ra: x30
STACK CFI 49ec0 .cfa: x29 16 + .ra: .cfa -8 + ^ x29: .cfa -16 + ^
STACK CFI INIT 49ee8 14 .cfa: sp 0 + .ra: x30
STACK CFI 49eec .cfa: sp 16 +
STACK CFI INIT 49efc 18 .cfa: sp 0 + .ra: x30
STACK CFI 49f00 .cfa: sp 32 +
STACK CFI INIT 49f14 2c .cfa: sp 0 + .ra: x30
STACK CFI 49f20 .cfa: x29 16 + .ra: .cfa -8 + ^ x29: .cfa -16 + ^
STACK CFI INIT 49f40 24 .cfa: sp 0 + .ra: x30
STACK CFI 49f4c .cfa: x29 16 + .ra: .cfa -8 + ^ x29: .cfa -16 + ^
STACK CFI INIT 49f64 84 .cfa: sp 0 + .ra: x30
STACK CFI 49f70 .cfa: x29 16 + .ra: .cfa -8 + ^ x29: .cfa -16 + ^
STACK CFI INIT 49fe8 2c .cfa: sp 0 + .ra: x30
STACK CFI 49ff4 .cfa: x29 16 + .ra: .cfa -8 + ^ x29: .cfa -16 + ^
STACK CFI INIT 4a014 a0 .cfa: sp 0 + .ra: x30
STACK CFI 4a020 .cfa: x29 16 + .ra: .cfa -8 + ^ x29: .cfa -16 + ^
STACK CFI INIT 4a0b4 13c .cfa: sp 0 + .ra: x30
STACK CFI 4a0c0 .cfa: x29 16 + .ra: .cfa -8 + ^ x29: .cfa -16 + ^
STACK CFI INIT 4a1f0 60 .cfa: sp 0 + .ra: x30
STACK CFI 4a1fc .cfa: x29 16 + .ra: .cfa -8 + ^ x29: .cfa -16 + ^
STACK CFI INIT 4a250 e4 .cfa: sp 0 + .ra: x30
STACK CFI 4a25c .cfa: x29 16 + .ra: .cfa -8 + ^ x29: .cfa -16 + ^
STACK CFI INIT 4a334 e4 .cfa: sp 0 + .ra: x30
STACK CFI 4a340 .cfa: x29 16 + .ra: .cfa -8 + ^ x29: .cfa -16 + ^
STACK CFI INIT 4a418 a4 .cfa: sp 0 + .ra: x30
STACK CFI 4a424 .cfa: x29 16 + .ra: .cfa -8 + ^ x29: .cfa -16 + ^
STACK CFI INIT 4a4bc 18 .cfa: sp 0 + .ra: x30
STACK CFI 4a4c0 .cfa: sp 32 +
STACK CFI INIT 4a4d4 34 .cfa: sp 0 + .ra: x30
STACK CFI 4a4e0 .cfa: x29 16 + .ra: .cfa -8 + ^ x29: .cfa -16 + ^
STACK CFI INIT 4a508 10 .cfa: sp 0 + .ra: x30
STACK CFI 4a50c .cfa: sp 16 +
STACK CFI INIT 4a518 34 .cfa: sp 0 + .ra: x30
STACK CFI 4a524 .cfa: x29 16 + .ra: .cfa -8 + ^ x29: .cfa -16 + ^
STACK CFI INIT 4a54c 20 .cfa: sp 0 + .ra: x30
STACK CFI 4a550 .cfa: sp 16 +
STACK CFI INIT 4a56c 8c .cfa: sp 0 + .ra: x30
STACK CFI 4a578 .cfa: x29 16 + .ra: .cfa -8 + ^ x29: .cfa -16 + ^
STACK CFI INIT 4a5f8 2c .cfa: sp 0 + .ra: x30
STACK CFI 4a604 .cfa: x29 16 + .ra: .cfa -8 + ^ x29: .cfa -16 + ^
STACK CFI INIT 4a624 2c .cfa: sp 0 + .ra: x30
STACK CFI 4a630 .cfa: x29 16 + .ra: .cfa -8 + ^ x29: .cfa -16 + ^
STACK CFI INIT 4a650 2c .cfa: sp 0 + .ra: x30
STACK CFI 4a65c .cfa: x29 16 + .ra: .cfa -8 + ^ x29: .cfa -16 + ^
STACK CFI INIT 4a67c 2c .cfa: sp 0 + .ra: x30
STACK CFI 4a688 .cfa: x29 16 + .ra: .cfa -8 + ^ x29: .cfa -16 + ^
STACK CFI INIT 4a6a8 14 .cfa: sp 0 + .ra: x30
STACK CFI 4a6ac .cfa: sp 16 +
STACK CFI INIT 4a6bc 14 .cfa: sp 0 + .ra: x30
STACK CFI 4a6c0 .cfa: sp 16 +
STACK CFI INIT 4a6d0 b0 .cfa: sp 0 + .ra: x30
STACK CFI 4a6dc .cfa: x29 16 + .ra: .cfa -8 + ^ x29: .cfa -16 + ^
STACK CFI INIT 4a780 68 .cfa: sp 0 + .ra: x30
STACK CFI 4a78c .cfa: x29 16 + .ra: .cfa -8 + ^ x29: .cfa -16 + ^
STACK CFI INIT 4a7e8 68 .cfa: sp 0 + .ra: x30
STACK CFI 4a7f4 .cfa: x29 16 + .ra: .cfa -8 + ^ x29: .cfa -16 + ^
STACK CFI INIT 4a850 30 .cfa: sp 0 + .ra: x30
STACK CFI 4a854 .cfa: sp 16 +
STACK CFI INIT 4a880 40 .cfa: sp 0 + .ra: x30
STACK CFI 4a88c .cfa: x29 16 + .ra: .cfa -8 + ^ x29: .cfa -16 + ^
STACK CFI INIT 4a8c0 e0 .cfa: sp 0 + .ra: x30
STACK CFI 4a8cc .cfa: x29 16 + .ra: .cfa -8 + ^ x29: .cfa -16 + ^
STACK CFI INIT 4a9a0 c0 .cfa: sp 0 + .ra: x30
STACK CFI 4a9ac .cfa: x29 16 + .ra: .cfa -8 + ^ x29: .cfa -16 + ^
STACK CFI INIT 4aa60 3c .cfa: sp 0 + .ra: x30
STACK CFI 4aa6c .cfa: x29 16 + .ra: .cfa -8 + ^ x29: .cfa -16 + ^
STACK CFI INIT 4aa9c a8 .cfa: sp 0 + .ra: x30
STACK CFI 4aaa8 .cfa: x29 16 + .ra: .cfa -8 + ^ x29: .cfa -16 + ^
STACK CFI INIT 4ab44 f0 .cfa: sp 0 + .ra: x30
STACK CFI 4ab50 .cfa: x29 16 + .ra: .cfa -8 + ^ x29: .cfa -16 + ^
STACK CFI INIT 4ac34 1c .cfa: sp 0 + .ra: x30
STACK CFI INIT 4ac50 88 .cfa: sp 0 + .ra: x30
STACK CFI 4ac5c .cfa: x29 16 + .ra: .cfa -8 + ^ x29: .cfa -16 + ^
STACK CFI INIT 4acd8 148 .cfa: sp 0 + .ra: x30
STACK CFI 4ace4 .cfa: x29 16 + .ra: .cfa -8 + ^ x29: .cfa -16 + ^
STACK CFI INIT 4ae20 ec .cfa: sp 0 + .ra: x30
STACK CFI 4ae2c .cfa: x29 16 + .ra: .cfa -8 + ^ x29: .cfa -16 + ^
STACK CFI INIT 4af0c 154 .cfa: sp 0 + .ra: x30
STACK CFI 4af18 .cfa: x29 16 + .ra: .cfa -8 + ^ x29: .cfa -16 + ^
STACK CFI INIT 4b060 44 .cfa: sp 0 + .ra: x30
STACK CFI 4b06c .cfa: x29 16 + .ra: .cfa -8 + ^ x29: .cfa -16 + ^
STACK CFI INIT 4b0a4 2b4 .cfa: sp 0 + .ra: x30
STACK CFI 4b0b0 .cfa: x29 16 + .ra: .cfa -8 + ^ x29: .cfa -16 + ^
STACK CFI INIT 4b358 44 .cfa: sp 0 + .ra: x30
STACK CFI 4b364 .cfa: x29 16 + .ra: .cfa -8 + ^ x29: .cfa -16 + ^
STACK CFI INIT 4b39c 2b4 .cfa: sp 0 + .ra: x30
STACK CFI 4b3a8 .cfa: x29 16 + .ra: .cfa -8 + ^ x29: .cfa -16 + ^
STACK CFI INIT 4b650 174 .cfa: sp 0 + .ra: x30
STACK CFI 4b65c .cfa: x29 16 + .ra: .cfa -8 + ^ x29: .cfa -16 + ^
STACK CFI INIT 4b7c4 b8 .cfa: sp 0 + .ra: x30
STACK CFI 4b7d0 .cfa: x29 16 + .ra: .cfa -8 + ^ x29: .cfa -16 + ^
STACK CFI INIT 4b87c 18 .cfa: sp 0 + .ra: x30
STACK CFI 4b880 .cfa: sp 16 +
STACK CFI INIT 4b894 1dc .cfa: sp 0 + .ra: x30
STACK CFI 4b8a0 .cfa: x29 16 + .ra: .cfa -8 + ^ x29: .cfa -16 + ^
STACK CFI INIT 4ba70 1c0 .cfa: sp 0 + .ra: x30
STACK CFI 4ba7c .cfa: x29 16 + .ra: .cfa -8 + ^ x29: .cfa -16 + ^
STACK CFI INIT 4bc30 a8 .cfa: sp 0 + .ra: x30
STACK CFI 4bc3c .cfa: x29 16 + .ra: .cfa -8 + ^ x29: .cfa -16 + ^
STACK CFI INIT 4bcd8 a8 .cfa: sp 0 + .ra: x30
STACK CFI 4bce4 .cfa: x29 16 + .ra: .cfa -8 + ^ x29: .cfa -16 + ^
STACK CFI INIT 4bd80 134 .cfa: sp 0 + .ra: x30
STACK CFI 4bd8c .cfa: x29 16 + .ra: .cfa -8 + ^ x29: .cfa -16 + ^
STACK CFI INIT 4beb4 b8 .cfa: sp 0 + .ra: x30
STACK CFI 4bec0 .cfa: x29 16 + .ra: .cfa -8 + ^ x29: .cfa -16 + ^
STACK CFI INIT 4bf6c 8 .cfa: sp 0 + .ra: x30
STACK CFI INIT 4bf74 6c .cfa: sp 0 + .ra: x30
STACK CFI 4bf80 .cfa: x29 16 + .ra: .cfa -8 + ^ x29: .cfa -16 + ^
STACK CFI INIT 4bfe0 b4 .cfa: sp 0 + .ra: x30
STACK CFI 4bfec .cfa: x29 16 + .ra: .cfa -8 + ^ x29: .cfa -16 + ^
STACK CFI INIT 4c094 1c .cfa: sp 0 + .ra: x30
STACK CFI 4c098 .cfa: sp 16 +
STACK CFI INIT 4c0b0 4c .cfa: sp 0 + .ra: x30
STACK CFI 4c0bc .cfa: x29 16 + .ra: .cfa -8 + ^ x29: .cfa -16 + ^
STACK CFI INIT 4c0fc 68 .cfa: sp 0 + .ra: x30
STACK CFI 4c108 .cfa: x29 16 + .ra: .cfa -8 + ^ x29: .cfa -16 + ^
STACK CFI INIT 4c164 174 .cfa: sp 0 + .ra: x30
STACK CFI 4c170 .cfa: x29 16 + .ra: .cfa -8 + ^ x29: .cfa -16 + ^
STACK CFI INIT 4c2d8 54 .cfa: sp 0 + .ra: x30
STACK CFI 4c2e4 .cfa: x29 16 + .ra: .cfa -8 + ^ x29: .cfa -16 + ^
STACK CFI INIT 4c32c 2e4 .cfa: sp 0 + .ra: x30
STACK CFI 4c33c .cfa: x29 16 + .ra: .cfa -8 + ^ x28: .cfa -32 + ^ x29: .cfa -16 + ^
STACK CFI INIT 4c610 40 .cfa: sp 0 + .ra: x30
STACK CFI 4c61c .cfa: x29 16 + .ra: .cfa -8 + ^ x29: .cfa -16 + ^
STACK CFI INIT 4c650 40 .cfa: sp 0 + .ra: x30
STACK CFI 4c65c .cfa: x29 16 + .ra: .cfa -8 + ^ x29: .cfa -16 + ^
STACK CFI INIT 4c690 30 .cfa: sp 0 + .ra: x30
STACK CFI 4c694 .cfa: sp 16 +
STACK CFI INIT 4c6c0 24 .cfa: sp 0 + .ra: x30
STACK CFI 4c6cc .cfa: x29 16 + .ra: .cfa -8 + ^ x29: .cfa -16 + ^
STACK CFI INIT 4c6e4 9c .cfa: sp 0 + .ra: x30
STACK CFI 4c6f0 .cfa: x29 16 + .ra: .cfa -8 + ^ x29: .cfa -16 + ^
STACK CFI INIT 4c780 128 .cfa: sp 0 + .ra: x30
STACK CFI 4c78c .cfa: x29 16 + .ra: .cfa -8 + ^ x29: .cfa -16 + ^
STACK CFI INIT 4c8a8 174 .cfa: sp 0 + .ra: x30
STACK CFI 4c8b4 .cfa: x29 16 + .ra: .cfa -8 + ^ x29: .cfa -16 + ^
STACK CFI INIT 4ca1c d0 .cfa: sp 0 + .ra: x30
STACK CFI 4ca28 .cfa: x29 16 + .ra: .cfa -8 + ^ x29: .cfa -16 + ^
STACK CFI INIT 4caec 2c0 .cfa: sp 0 + .ra: x30
STACK CFI 4cafc .cfa: x29 16 + .ra: .cfa -8 + ^ x28: .cfa -32 + ^ x29: .cfa -16 + ^
STACK CFI INIT 4cdac 30 .cfa: sp 0 + .ra: x30
STACK CFI 4cdb0 .cfa: sp 16 +
STACK CFI INIT 4cddc 20 .cfa: sp 0 + .ra: x30
STACK CFI 4cde0 .cfa: sp 16 +
STACK CFI INIT 4cdfc 7c .cfa: sp 0 + .ra: x30
STACK CFI 4ce08 .cfa: x29 16 + .ra: .cfa -8 + ^ x29: .cfa -16 + ^
STACK CFI INIT 4ce78 28 .cfa: sp 0 + .ra: x30
STACK CFI 4ce7c .cfa: sp 16 +
STACK CFI INIT 4cea0 18 .cfa: sp 0 + .ra: x30
STACK CFI 4cea4 .cfa: sp 16 +
STACK CFI INIT 4ceb8 40 .cfa: sp 0 + .ra: x30
STACK CFI 4cec4 .cfa: x29 16 + .ra: .cfa -8 + ^ x29: .cfa -16 + ^
STACK CFI INIT 4cef8 48 .cfa: sp 0 + .ra: x30
STACK CFI 4cf04 .cfa: x29 16 + .ra: .cfa -8 + ^ x29: .cfa -16 + ^
STACK CFI INIT 4cf40 3c .cfa: sp 0 + .ra: x30
STACK CFI 4cf4c .cfa: x29 16 + .ra: .cfa -8 + ^ x29: .cfa -16 + ^
STACK CFI INIT 4cf7c 34 .cfa: sp 0 + .ra: x30
STACK CFI 4cf80 .cfa: sp 16 +
STACK CFI INIT 4cfb0 18 .cfa: sp 0 + .ra: x30
STACK CFI 4cfb4 .cfa: sp 16 +
STACK CFI INIT 4cfc8 28 .cfa: sp 0 + .ra: x30
STACK CFI 4cfcc .cfa: sp 16 +
STACK CFI INIT 4cff0 20 .cfa: sp 0 + .ra: x30
STACK CFI 4cff4 .cfa: sp 16 +
STACK CFI INIT 4d010 18 .cfa: sp 0 + .ra: x30
STACK CFI 4d014 .cfa: sp 16 +
STACK CFI INIT 4d028 40 .cfa: sp 0 + .ra: x30
STACK CFI 4d034 .cfa: x29 16 + .ra: .cfa -8 + ^ x29: .cfa -16 + ^
STACK CFI INIT 4d068 40 .cfa: sp 0 + .ra: x30
STACK CFI 4d074 .cfa: x29 16 + .ra: .cfa -8 + ^ x29: .cfa -16 + ^
STACK CFI INIT 4d0a8 2c .cfa: sp 0 + .ra: x30
STACK CFI 4d0b4 .cfa: x29 16 + .ra: .cfa -8 + ^ x29: .cfa -16 + ^
STACK CFI INIT 4d0d4 c8 .cfa: sp 0 + .ra: x30
STACK CFI 4d0e0 .cfa: x29 16 + .ra: .cfa -8 + ^ x29: .cfa -16 + ^
STACK CFI INIT 4d19c 10 .cfa: sp 0 + .ra: x30
STACK CFI 4d1a0 .cfa: sp 16 +
STACK CFI INIT 4d1ac a0 .cfa: sp 0 + .ra: x30
STACK CFI 4d1b8 .cfa: x29 16 + .ra: .cfa -8 + ^ x29: .cfa -16 + ^
STACK CFI INIT 4d24c 34 .cfa: sp 0 + .ra: x30
STACK CFI 4d258 .cfa: x29 16 + .ra: .cfa -8 + ^ x29: .cfa -16 + ^
STACK CFI INIT 4d280 2c .cfa: sp 0 + .ra: x30
STACK CFI 4d28c .cfa: x29 16 + .ra: .cfa -8 + ^ x29: .cfa -16 + ^
STACK CFI INIT 4d2ac 14 .cfa: sp 0 + .ra: x30
STACK CFI 4d2b0 .cfa: sp 16 +
STACK CFI INIT 4d2c0 34 .cfa: sp 0 + .ra: x30
STACK CFI 4d2cc .cfa: x29 16 + .ra: .cfa -8 + ^ x29: .cfa -16 + ^
STACK CFI INIT 4d2f4 14 .cfa: sp 0 + .ra: x30
STACK CFI 4d2f8 .cfa: sp 16 +
STACK CFI INIT 4d308 24 .cfa: sp 0 + .ra: x30
STACK CFI 4d314 .cfa: x29 16 + .ra: .cfa -8 + ^ x29: .cfa -16 + ^
STACK CFI INIT 4d32c 14 .cfa: sp 0 + .ra: x30
STACK CFI 4d330 .cfa: sp 16 +
STACK CFI INIT 4d340 20 .cfa: sp 0 + .ra: x30
STACK CFI 4d344 .cfa: sp 48 +
STACK CFI INIT 4d360 28 .cfa: sp 0 + .ra: x30
STACK CFI 4d36c .cfa: x29 16 + .ra: .cfa -8 + ^ x29: .cfa -16 + ^
STACK CFI INIT 4d388 68 .cfa: sp 0 + .ra: x30
STACK CFI 4d394 .cfa: x29 16 + .ra: .cfa -8 + ^ x29: .cfa -16 + ^
STACK CFI INIT 4d3f0 20 .cfa: sp 0 + .ra: x30
STACK CFI 4d3f4 .cfa: sp 16 +
STACK CFI INIT 4d410 50 .cfa: sp 0 + .ra: x30
STACK CFI 4d41c .cfa: x29 16 + .ra: .cfa -8 + ^ x29: .cfa -16 + ^
STACK CFI INIT 4d460 2c .cfa: sp 0 + .ra: x30
STACK CFI 4d46c .cfa: x29 16 + .ra: .cfa -8 + ^ x29: .cfa -16 + ^
STACK CFI INIT 4d48c ec .cfa: sp 0 + .ra: x30
STACK CFI 4d498 .cfa: x29 16 + .ra: .cfa -8 + ^ x29: .cfa -16 + ^
STACK CFI INIT 4d578 18 .cfa: sp 0 + .ra: x30
STACK CFI 4d57c .cfa: sp 32 +
STACK CFI INIT 4d590 108 .cfa: sp 0 + .ra: x30
STACK CFI 4d59c .cfa: x29 16 + .ra: .cfa -8 + ^ x29: .cfa -16 + ^
STACK CFI INIT 4d698 10 .cfa: sp 0 + .ra: x30
STACK CFI 4d69c .cfa: sp 16 +
STACK CFI INIT 4d6a8 24 .cfa: sp 0 + .ra: x30
STACK CFI 4d6b4 .cfa: x29 16 + .ra: .cfa -8 + ^ x29: .cfa -16 + ^
STACK CFI INIT 4d6cc 50 .cfa: sp 0 + .ra: x30
STACK CFI 4d6d8 .cfa: x29 16 + .ra: .cfa -8 + ^ x29: .cfa -16 + ^
STACK CFI INIT 4d71c e4 .cfa: sp 0 + .ra: x30
STACK CFI 4d728 .cfa: x29 16 + .ra: .cfa -8 + ^ x29: .cfa -16 + ^
STACK CFI INIT 4d800 ec .cfa: sp 0 + .ra: x30
STACK CFI 4d80c .cfa: x29 16 + .ra: .cfa -8 + ^ x29: .cfa -16 + ^
STACK CFI INIT 4d8ec ac .cfa: sp 0 + .ra: x30
STACK CFI 4d8f8 .cfa: x29 16 + .ra: .cfa -8 + ^ x29: .cfa -16 + ^
STACK CFI INIT 4d998 12c .cfa: sp 0 + .ra: x30
STACK CFI 4d9a4 .cfa: x29 16 + .ra: .cfa -8 + ^ x29: .cfa -16 + ^
STACK CFI INIT 4dac4 8c .cfa: sp 0 + .ra: x30
STACK CFI 4dad0 .cfa: x29 16 + .ra: .cfa -8 + ^ x29: .cfa -16 + ^
STACK CFI INIT 4db50 18 .cfa: sp 0 + .ra: x30
STACK CFI 4db54 .cfa: sp 16 +
STACK CFI INIT 4db68 18 .cfa: sp 0 + .ra: x30
STACK CFI 4db6c .cfa: sp 16 +
STACK CFI INIT 4db80 24 .cfa: sp 0 + .ra: x30
STACK CFI 4db8c .cfa: x29 16 + .ra: .cfa -8 + ^ x29: .cfa -16 + ^
STACK CFI INIT 4dba4 14 .cfa: sp 0 + .ra: x30
STACK CFI 4dba8 .cfa: sp 16 +
STACK CFI INIT 4dbb8 64 .cfa: sp 0 + .ra: x30
STACK CFI 4dbc4 .cfa: x29 16 + .ra: .cfa -8 + ^ x29: .cfa -16 + ^
STACK CFI INIT 4dc1c 60 .cfa: sp 0 + .ra: x30
STACK CFI 4dc28 .cfa: x29 16 + .ra: .cfa -8 + ^ x29: .cfa -16 + ^
STACK CFI INIT 4dc7c 14 .cfa: sp 0 + .ra: x30
STACK CFI 4dc80 .cfa: sp 16 +
STACK CFI INIT 4dc90 44 .cfa: sp 0 + .ra: x30
STACK CFI 4dc9c .cfa: x29 16 + .ra: .cfa -8 + ^ x29: .cfa -16 + ^
STACK CFI INIT 4dcd4 64 .cfa: sp 0 + .ra: x30
STACK CFI 4dce0 .cfa: x29 16 + .ra: .cfa -8 + ^ x29: .cfa -16 + ^
STACK CFI INIT 4dd38 14 .cfa: sp 0 + .ra: x30
STACK CFI 4dd3c .cfa: sp 16 +
STACK CFI INIT 4dd4c 64 .cfa: sp 0 + .ra: x30
STACK CFI 4dd58 .cfa: x29 16 + .ra: .cfa -8 + ^ x29: .cfa -16 + ^
STACK CFI INIT 4ddb0 60 .cfa: sp 0 + .ra: x30
STACK CFI 4ddbc .cfa: x29 16 + .ra: .cfa -8 + ^ x29: .cfa -16 + ^
STACK CFI INIT 4de10 14 .cfa: sp 0 + .ra: x30
STACK CFI 4de14 .cfa: sp 16 +
STACK CFI INIT 4de24 44 .cfa: sp 0 + .ra: x30
STACK CFI 4de30 .cfa: x29 16 + .ra: .cfa -8 + ^ x29: .cfa -16 + ^
STACK CFI INIT 4de68 80 .cfa: sp 0 + .ra: x30
STACK CFI 4de70 .cfa: sp 48 + .ra: .cfa -16 + ^
STACK CFI INIT 4dee8 14 .cfa: sp 0 + .ra: x30
STACK CFI 4deec .cfa: sp 16 +
STACK CFI INIT 4defc 14 .cfa: sp 0 + .ra: x30
STACK CFI 4df00 .cfa: sp 16 +
STACK CFI INIT 4df10 68 .cfa: sp 0 + .ra: x30
STACK CFI 4df14 .cfa: sp 32 +
STACK CFI INIT 4df78 14 .cfa: sp 0 + .ra: x30
STACK CFI 4df7c .cfa: sp 16 +
STACK CFI INIT 4df8c 8c .cfa: sp 0 + .ra: x30
STACK CFI 4df98 .cfa: x29 16 + .ra: .cfa -8 + ^ x29: .cfa -16 + ^
STACK CFI INIT 4e018 2c .cfa: sp 0 + .ra: x30
STACK CFI 4e024 .cfa: x29 16 + .ra: .cfa -8 + ^ x29: .cfa -16 + ^
STACK CFI INIT 4e044 2c .cfa: sp 0 + .ra: x30
STACK CFI 4e050 .cfa: x29 16 + .ra: .cfa -8 + ^ x29: .cfa -16 + ^
STACK CFI INIT 4e070 2c .cfa: sp 0 + .ra: x30
STACK CFI 4e07c .cfa: x29 16 + .ra: .cfa -8 + ^ x29: .cfa -16 + ^
STACK CFI INIT 4e09c 18 .cfa: sp 0 + .ra: x30
STACK CFI 4e0a0 .cfa: sp 16 +
STACK CFI INIT 4e0b4 24 .cfa: sp 0 + .ra: x30
STACK CFI 4e0c0 .cfa: x29 16 + .ra: .cfa -8 + ^ x29: .cfa -16 + ^
STACK CFI INIT 4e0d8 14 .cfa: sp 0 + .ra: x30
STACK CFI 4e0dc .cfa: sp 16 +
STACK CFI INIT 4e0ec 84 .cfa: sp 0 + .ra: x30
STACK CFI 4e0f8 .cfa: x29 16 + .ra: .cfa -8 + ^ x29: .cfa -16 + ^
STACK CFI INIT 4e170 34 .cfa: sp 0 + .ra: x30
STACK CFI 4e17c .cfa: x29 16 + .ra: .cfa -8 + ^ x29: .cfa -16 + ^
STACK CFI INIT 4e1a4 2c .cfa: sp 0 + .ra: x30
STACK CFI 4e1b0 .cfa: x29 16 + .ra: .cfa -8 + ^ x29: .cfa -16 + ^
STACK CFI INIT 4e1d0 2c .cfa: sp 0 + .ra: x30
STACK CFI 4e1dc .cfa: x29 16 + .ra: .cfa -8 + ^ x29: .cfa -16 + ^
STACK CFI INIT 4e1fc 48 .cfa: sp 0 + .ra: x30
STACK CFI 4e208 .cfa: x29 16 + .ra: .cfa -8 + ^ x29: .cfa -16 + ^
STACK CFI INIT 4e244 14 .cfa: sp 0 + .ra: x30
STACK CFI 4e248 .cfa: sp 16 +
STACK CFI INIT 4e258 3c .cfa: sp 0 + .ra: x30
STACK CFI 4e264 .cfa: x29 16 + .ra: .cfa -8 + ^ x29: .cfa -16 + ^
STACK CFI INIT 4e294 70 .cfa: sp 0 + .ra: x30
STACK CFI 4e2a0 .cfa: x29 16 + .ra: .cfa -8 + ^ x29: .cfa -16 + ^
STACK CFI INIT 4e304 2c .cfa: sp 0 + .ra: x30
STACK CFI 4e310 .cfa: x29 16 + .ra: .cfa -8 + ^ x29: .cfa -16 + ^
STACK CFI INIT 4e330 18 .cfa: sp 0 + .ra: x30
STACK CFI 4e334 .cfa: sp 16 +
STACK CFI INIT 4e348 24 .cfa: sp 0 + .ra: x30
STACK CFI 4e354 .cfa: x29 16 + .ra: .cfa -8 + ^ x29: .cfa -16 + ^
STACK CFI INIT 4e36c d4 .cfa: sp 0 + .ra: x30
STACK CFI 4e378 .cfa: x29 16 + .ra: .cfa -8 + ^ x29: .cfa -16 + ^
STACK CFI INIT 4e440 88 .cfa: sp 0 + .ra: x30
STACK CFI 4e448 .cfa: sp 64 + .ra: .cfa -16 + ^
STACK CFI INIT 4e4c8 90 .cfa: sp 0 + .ra: x30
STACK CFI 4e4d0 .cfa: sp 64 + .ra: .cfa -16 + ^
STACK CFI INIT 4e558 88 .cfa: sp 0 + .ra: x30
STACK CFI 4e564 .cfa: x29 16 + .ra: .cfa -8 + ^ x29: .cfa -16 + ^
STACK CFI INIT 4e5e0 c8 .cfa: sp 0 + .ra: x30
STACK CFI 4e5ec .cfa: x29 16 + .ra: .cfa -8 + ^ x29: .cfa -16 + ^
STACK CFI INIT 4e6a8 14 .cfa: sp 0 + .ra: x30
STACK CFI 4e6ac .cfa: sp 16 +
STACK CFI INIT 4e6bc 28 .cfa: sp 0 + .ra: x30
STACK CFI 4e6c8 .cfa: x29 16 + .ra: .cfa -8 + ^ x29: .cfa -16 + ^
STACK CFI INIT 4e6e4 34 .cfa: sp 0 + .ra: x30
STACK CFI 4e6f0 .cfa: x29 16 + .ra: .cfa -8 + ^ x29: .cfa -16 + ^
STACK CFI INIT 4e718 48 .cfa: sp 0 + .ra: x30
STACK CFI 4e724 .cfa: x29 16 + .ra: .cfa -8 + ^ x29: .cfa -16 + ^
STACK CFI INIT 4e760 34 .cfa: sp 0 + .ra: x30
STACK CFI 4e76c .cfa: x29 16 + .ra: .cfa -8 + ^ x29: .cfa -16 + ^
STACK CFI INIT 4e794 9c .cfa: sp 0 + .ra: x30
STACK CFI 4e7a0 .cfa: x29 16 + .ra: .cfa -8 + ^ x29: .cfa -16 + ^
STACK CFI INIT 4e830 44 .cfa: sp 0 + .ra: x30
STACK CFI 4e83c .cfa: x29 16 + .ra: .cfa -8 + ^ x29: .cfa -16 + ^
STACK CFI INIT 4e874 2c .cfa: sp 0 + .ra: x30
STACK CFI 4e880 .cfa: x29 16 + .ra: .cfa -8 + ^ x29: .cfa -16 + ^
STACK CFI INIT 4e8a0 24 .cfa: sp 0 + .ra: x30
STACK CFI 4e8ac .cfa: x29 16 + .ra: .cfa -8 + ^ x29: .cfa -16 + ^
STACK CFI INIT 4e8c4 14 .cfa: sp 0 + .ra: x30
STACK CFI 4e8c8 .cfa: sp 16 +
STACK CFI INIT 4e8d8 48 .cfa: sp 0 + .ra: x30
STACK CFI 4e8e4 .cfa: x29 16 + .ra: .cfa -8 + ^ x29: .cfa -16 + ^
STACK CFI INIT 4e920 2c .cfa: sp 0 + .ra: x30
STACK CFI 4e92c .cfa: x29 16 + .ra: .cfa -8 + ^ x29: .cfa -16 + ^
STACK CFI INIT 4e94c 24 .cfa: sp 0 + .ra: x30
STACK CFI 4e958 .cfa: x29 16 + .ra: .cfa -8 + ^ x29: .cfa -16 + ^
STACK CFI INIT 4e970 13c .cfa: sp 0 + .ra: x30
STACK CFI 4e97c .cfa: x29 16 + .ra: .cfa -8 + ^ x29: .cfa -16 + ^
STACK CFI INIT 4eaac 60 .cfa: sp 0 + .ra: x30
STACK CFI 4eab8 .cfa: x29 16 + .ra: .cfa -8 + ^ x29: .cfa -16 + ^
STACK CFI INIT 4eb0c e4 .cfa: sp 0 + .ra: x30
STACK CFI 4eb18 .cfa: x29 16 + .ra: .cfa -8 + ^ x29: .cfa -16 + ^
STACK CFI INIT 4ebf0 a4 .cfa: sp 0 + .ra: x30
STACK CFI 4ebfc .cfa: x29 16 + .ra: .cfa -8 + ^ x29: .cfa -16 + ^
STACK CFI INIT 4ec94 f8 .cfa: sp 0 + .ra: x30
STACK CFI 4eca0 .cfa: x29 16 + .ra: .cfa -8 + ^ x29: .cfa -16 + ^
STACK CFI INIT 4ed8c 34 .cfa: sp 0 + .ra: x30
STACK CFI 4ed98 .cfa: x29 16 + .ra: .cfa -8 + ^ x29: .cfa -16 + ^
STACK CFI INIT 4edc0 34 .cfa: sp 0 + .ra: x30
STACK CFI 4edcc .cfa: x29 16 + .ra: .cfa -8 + ^ x29: .cfa -16 + ^
STACK CFI INIT 4edf4 20 .cfa: sp 0 + .ra: x30
STACK CFI 4edf8 .cfa: sp 16 +
STACK CFI INIT 4ee14 14 .cfa: sp 0 + .ra: x30
STACK CFI 4ee18 .cfa: sp 16 +
STACK CFI INIT 4ee28 68 .cfa: sp 0 + .ra: x30
STACK CFI 4ee34 .cfa: x29 16 + .ra: .cfa -8 + ^ x29: .cfa -16 + ^
STACK CFI INIT 4ee90 20 .cfa: sp 0 + .ra: x30
STACK CFI 4ee94 .cfa: sp 16 +
STACK CFI INIT 4eeb0 50 .cfa: sp 0 + .ra: x30
STACK CFI 4eebc .cfa: x29 16 + .ra: .cfa -8 + ^ x29: .cfa -16 + ^
STACK CFI INIT 4ef00 54 .cfa: sp 0 + .ra: x30
STACK CFI 4ef0c .cfa: x29 16 + .ra: .cfa -8 + ^ x29: .cfa -16 + ^
STACK CFI INIT 4ef54 20 .cfa: sp 0 + .ra: x30
STACK CFI 4ef58 .cfa: sp 16 +
STACK CFI INIT 4ef74 20c .cfa: sp 0 + .ra: x30
STACK CFI 4ef80 .cfa: x29 16 + .ra: .cfa -8 + ^ x29: .cfa -16 + ^
STACK CFI INIT 4f180 28c .cfa: sp 0 + .ra: x30
STACK CFI 4f18c .cfa: x29 16 + .ra: .cfa -8 + ^ x29: .cfa -16 + ^
STACK CFI INIT 4f40c 274 .cfa: sp 0 + .ra: x30
STACK CFI 4f418 .cfa: x29 16 + .ra: .cfa -8 + ^ x29: .cfa -16 + ^
STACK CFI INIT 4f680 194 .cfa: sp 0 + .ra: x30
STACK CFI 4f68c .cfa: x29 16 + .ra: .cfa -8 + ^ x29: .cfa -16 + ^
STACK CFI INIT 4f814 200 .cfa: sp 0 + .ra: x30
STACK CFI 4f820 .cfa: x29 16 + .ra: .cfa -8 + ^ x29: .cfa -16 + ^
STACK CFI INIT 4fa14 210 .cfa: sp 0 + .ra: x30
STACK CFI 4fa20 .cfa: x29 16 + .ra: .cfa -8 + ^ x29: .cfa -16 + ^
STACK CFI INIT 4fc24 2c .cfa: sp 0 + .ra: x30
STACK CFI 4fc28 .cfa: sp 16 +
STACK CFI INIT 4fc50 2c .cfa: sp 0 + .ra: x30
STACK CFI 4fc54 .cfa: sp 16 +
STACK CFI INIT 4fc7c 228 .cfa: sp 0 + .ra: x30
STACK CFI 4fc88 .cfa: x29 16 + .ra: .cfa -8 + ^ x29: .cfa -16 + ^
STACK CFI INIT 4fea4 20 .cfa: sp 0 + .ra: x30
STACK CFI 4fea8 .cfa: sp 16 +
STACK CFI INIT 4fec4 20 .cfa: sp 0 + .ra: x30
STACK CFI 4fec8 .cfa: sp 16 +
STACK CFI INIT 4fee4 228 .cfa: sp 0 + .ra: x30
STACK CFI 4fef0 .cfa: x29 16 + .ra: .cfa -8 + ^ x29: .cfa -16 + ^
STACK CFI INIT 5010c 2c .cfa: sp 0 + .ra: x30
STACK CFI 50110 .cfa: sp 16 +
STACK CFI INIT 50138 fc .cfa: sp 0 + .ra: x30
STACK CFI 50144 .cfa: x29 16 + .ra: .cfa -8 + ^ x29: .cfa -16 + ^
STACK CFI INIT 50234 2c .cfa: sp 0 + .ra: x30
STACK CFI 50240 .cfa: x29 16 + .ra: .cfa -8 + ^ x29: .cfa -16 + ^
STACK CFI INIT 50260 18 .cfa: sp 0 + .ra: x30
STACK CFI 50264 .cfa: sp 32 +
STACK CFI INIT 50278 64 .cfa: sp 0 + .ra: x30
STACK CFI 50284 .cfa: x29 16 + .ra: .cfa -8 + ^ x29: .cfa -16 + ^
STACK CFI INIT 502dc 2c .cfa: sp 0 + .ra: x30
STACK CFI 502e8 .cfa: x29 16 + .ra: .cfa -8 + ^ x29: .cfa -16 + ^
STACK CFI INIT 50308 14 .cfa: sp 0 + .ra: x30
STACK CFI 5030c .cfa: sp 16 +
STACK CFI INIT 5031c 10 .cfa: sp 0 + .ra: x30
STACK CFI 50320 .cfa: sp 16 +
STACK CFI INIT 5032c 12c .cfa: sp 0 + .ra: x30
STACK CFI 50338 .cfa: x29 16 + .ra: .cfa -8 + ^ x29: .cfa -16 + ^
STACK CFI INIT 50458 24 .cfa: sp 0 + .ra: x30
STACK CFI 50464 .cfa: x29 16 + .ra: .cfa -8 + ^ x29: .cfa -16 + ^
STACK CFI INIT 5047c 14 .cfa: sp 0 + .ra: x30
STACK CFI 50480 .cfa: sp 16 +
STACK CFI INIT 50490 60 .cfa: sp 0 + .ra: x30
STACK CFI 5049c .cfa: x29 16 + .ra: .cfa -8 + ^ x29: .cfa -16 + ^
STACK CFI INIT 504f0 14 .cfa: sp 0 + .ra: x30
STACK CFI 504f4 .cfa: sp 16 +
STACK CFI INIT 50504 58 .cfa: sp 0 + .ra: x30
STACK CFI 50510 .cfa: x29 16 + .ra: .cfa -8 + ^ x29: .cfa -16 + ^
STACK CFI INIT 5055c 2c .cfa: sp 0 + .ra: x30
STACK CFI 50568 .cfa: x29 16 + .ra: .cfa -8 + ^ x29: .cfa -16 + ^
STACK CFI INIT 50588 14 .cfa: sp 0 + .ra: x30
STACK CFI 5058c .cfa: sp 16 +
STACK CFI INIT 5059c e4 .cfa: sp 0 + .ra: x30
STACK CFI 505a8 .cfa: x29 16 + .ra: .cfa -8 + ^ x29: .cfa -16 + ^
STACK CFI INIT 50680 28 .cfa: sp 0 + .ra: x30
STACK CFI 50684 .cfa: sp 16 +
STACK CFI INIT 506a8 ec .cfa: sp 0 + .ra: x30
STACK CFI 506b4 .cfa: x29 16 + .ra: .cfa -8 + ^ x29: .cfa -16 + ^
STACK CFI INIT 50794 f8 .cfa: sp 0 + .ra: x30
STACK CFI 507a0 .cfa: x29 16 + .ra: .cfa -8 + ^ x29: .cfa -16 + ^
STACK CFI INIT 5088c 8c .cfa: sp 0 + .ra: x30
STACK CFI 50898 .cfa: x29 16 + .ra: .cfa -8 + ^ x29: .cfa -16 + ^
STACK CFI INIT 50918 8c .cfa: sp 0 + .ra: x30
STACK CFI 50924 .cfa: x29 16 + .ra: .cfa -8 + ^ x29: .cfa -16 + ^
STACK CFI INIT 509a4 24 .cfa: sp 0 + .ra: x30
STACK CFI 509b0 .cfa: x29 16 + .ra: .cfa -8 + ^ x29: .cfa -16 + ^
STACK CFI INIT 509c8 2c .cfa: sp 0 + .ra: x30
STACK CFI 509d4 .cfa: x29 16 + .ra: .cfa -8 + ^ x29: .cfa -16 + ^
STACK CFI INIT 509f4 2c .cfa: sp 0 + .ra: x30
STACK CFI 50a00 .cfa: x29 16 + .ra: .cfa -8 + ^ x29: .cfa -16 + ^
STACK CFI INIT 50a20 2c .cfa: sp 0 + .ra: x30
STACK CFI 50a2c .cfa: x29 16 + .ra: .cfa -8 + ^ x29: .cfa -16 + ^
STACK CFI INIT 50a4c 18 .cfa: sp 0 + .ra: x30
STACK CFI 50a50 .cfa: sp 16 +
STACK CFI INIT 50a64 2c .cfa: sp 0 + .ra: x30
STACK CFI 50a70 .cfa: x29 16 + .ra: .cfa -8 + ^ x29: .cfa -16 + ^
STACK CFI INIT 50a90 14 .cfa: sp 0 + .ra: x30
STACK CFI 50a94 .cfa: sp 16 +
STACK CFI INIT 50aa4 48 .cfa: sp 0 + .ra: x30
STACK CFI 50ab0 .cfa: x29 16 + .ra: .cfa -8 + ^ x29: .cfa -16 + ^
STACK CFI INIT 50aec 2c .cfa: sp 0 + .ra: x30
STACK CFI 50af8 .cfa: x29 16 + .ra: .cfa -8 + ^ x29: .cfa -16 + ^
STACK CFI INIT 50b18 24 .cfa: sp 0 + .ra: x30
STACK CFI 50b24 .cfa: x29 16 + .ra: .cfa -8 + ^ x29: .cfa -16 + ^
STACK CFI INIT 50b3c 14 .cfa: sp 0 + .ra: x30
STACK CFI 50b40 .cfa: sp 16 +
STACK CFI INIT 50b50 84 .cfa: sp 0 + .ra: x30
STACK CFI 50b5c .cfa: x29 16 + .ra: .cfa -8 + ^ x29: .cfa -16 + ^
STACK CFI INIT 50bd4 34 .cfa: sp 0 + .ra: x30
STACK CFI 50be0 .cfa: x29 16 + .ra: .cfa -8 + ^ x29: .cfa -16 + ^
STACK CFI INIT 50c08 2c .cfa: sp 0 + .ra: x30
STACK CFI 50c14 .cfa: x29 16 + .ra: .cfa -8 + ^ x29: .cfa -16 + ^
STACK CFI INIT 50c34 2c .cfa: sp 0 + .ra: x30
STACK CFI 50c40 .cfa: x29 16 + .ra: .cfa -8 + ^ x29: .cfa -16 + ^
STACK CFI INIT 50c60 48 .cfa: sp 0 + .ra: x30
STACK CFI 50c6c .cfa: x29 16 + .ra: .cfa -8 + ^ x29: .cfa -16 + ^
STACK CFI INIT 50ca8 14 .cfa: sp 0 + .ra: x30
STACK CFI 50cac .cfa: sp 16 +
STACK CFI INIT 50cbc 3c .cfa: sp 0 + .ra: x30
STACK CFI 50cc8 .cfa: x29 16 + .ra: .cfa -8 + ^ x29: .cfa -16 + ^
STACK CFI INIT 50cf8 7c .cfa: sp 0 + .ra: x30
STACK CFI 50d04 .cfa: x29 16 + .ra: .cfa -8 + ^ x29: .cfa -16 + ^
STACK CFI INIT 50d74 d8 .cfa: sp 0 + .ra: x30
STACK CFI 50d80 .cfa: x29 16 + .ra: .cfa -8 + ^ x29: .cfa -16 + ^
STACK CFI INIT 50e4c 2c .cfa: sp 0 + .ra: x30
STACK CFI 50e58 .cfa: x29 16 + .ra: .cfa -8 + ^ x29: .cfa -16 + ^
STACK CFI INIT 50e78 18 .cfa: sp 0 + .ra: x30
STACK CFI 50e7c .cfa: sp 16 +
STACK CFI INIT 50e90 24 .cfa: sp 0 + .ra: x30
STACK CFI 50e9c .cfa: x29 16 + .ra: .cfa -8 + ^ x29: .cfa -16 + ^
STACK CFI INIT 50eb4 d4 .cfa: sp 0 + .ra: x30
STACK CFI 50ec0 .cfa: x29 16 + .ra: .cfa -8 + ^ x29: .cfa -16 + ^
STACK CFI INIT 50f88 b0 .cfa: sp 0 + .ra: x30
STACK CFI 50f94 .cfa: x29 16 + .ra: .cfa -8 + ^ x29: .cfa -16 + ^
STACK CFI INIT 51038 88 .cfa: sp 0 + .ra: x30
STACK CFI 51044 .cfa: x29 16 + .ra: .cfa -8 + ^ x29: .cfa -16 + ^
STACK CFI INIT 510c0 c8 .cfa: sp 0 + .ra: x30
STACK CFI 510cc .cfa: x29 16 + .ra: .cfa -8 + ^ x29: .cfa -16 + ^
STACK CFI INIT 51188 10 .cfa: sp 0 + .ra: x30
STACK CFI 5118c .cfa: sp 16 +
STACK CFI INIT 51198 20 .cfa: sp 0 + .ra: x30
STACK CFI 5119c .cfa: sp 48 +
STACK CFI INIT 511b8 28 .cfa: sp 0 + .ra: x30
STACK CFI 511c4 .cfa: x29 16 + .ra: .cfa -8 + ^ x29: .cfa -16 + ^
STACK CFI INIT 511e0 64 .cfa: sp 0 + .ra: x30
STACK CFI 511ec .cfa: x29 16 + .ra: .cfa -8 + ^ x29: .cfa -16 + ^
STACK CFI INIT 51244 24 .cfa: sp 0 + .ra: x30
STACK CFI 51250 .cfa: x29 16 + .ra: .cfa -8 + ^ x29: .cfa -16 + ^
STACK CFI INIT 51268 60 .cfa: sp 0 + .ra: x30
STACK CFI 51274 .cfa: x29 16 + .ra: .cfa -8 + ^ x29: .cfa -16 + ^
STACK CFI INIT 512c8 14 .cfa: sp 0 + .ra: x30
STACK CFI 512cc .cfa: sp 16 +
STACK CFI INIT 512dc 58 .cfa: sp 0 + .ra: x30
STACK CFI 512e8 .cfa: x29 16 + .ra: .cfa -8 + ^ x29: .cfa -16 + ^
STACK CFI INIT 51334 14 .cfa: sp 0 + .ra: x30
STACK CFI 51338 .cfa: sp 16 +
STACK CFI INIT 51348 14 .cfa: sp 0 + .ra: x30
STACK CFI 5134c .cfa: sp 16 +
STACK CFI INIT 5135c 28 .cfa: sp 0 + .ra: x30
STACK CFI 51368 .cfa: x29 16 + .ra: .cfa -8 + ^ x29: .cfa -16 + ^
STACK CFI INIT 51384 3c .cfa: sp 0 + .ra: x30
STACK CFI 51390 .cfa: x29 16 + .ra: .cfa -8 + ^ x29: .cfa -16 + ^
STACK CFI INIT 513c0 48 .cfa: sp 0 + .ra: x30
STACK CFI 513cc .cfa: x29 16 + .ra: .cfa -8 + ^ x29: .cfa -16 + ^
STACK CFI INIT 51408 34 .cfa: sp 0 + .ra: x30
STACK CFI 51414 .cfa: x29 16 + .ra: .cfa -8 + ^ x29: .cfa -16 + ^
STACK CFI INIT 5143c 9c .cfa: sp 0 + .ra: x30
STACK CFI 51448 .cfa: x29 16 + .ra: .cfa -8 + ^ x29: .cfa -16 + ^
STACK CFI INIT 514d8 34 .cfa: sp 0 + .ra: x30
STACK CFI 514e4 .cfa: x29 16 + .ra: .cfa -8 + ^ x29: .cfa -16 + ^
STACK CFI INIT 5150c 34 .cfa: sp 0 + .ra: x30
STACK CFI 51518 .cfa: x29 16 + .ra: .cfa -8 + ^ x29: .cfa -16 + ^
STACK CFI INIT 51540 14 .cfa: sp 0 + .ra: x30
STACK CFI 51544 .cfa: sp 16 +
STACK CFI INIT 51554 18 .cfa: sp 0 + .ra: x30
STACK CFI 51558 .cfa: sp 32 +
STACK CFI INIT 5156c 2c .cfa: sp 0 + .ra: x30
STACK CFI 51578 .cfa: x29 16 + .ra: .cfa -8 + ^ x29: .cfa -16 + ^
STACK CFI INIT 51598 24 .cfa: sp 0 + .ra: x30
STACK CFI 515a4 .cfa: x29 16 + .ra: .cfa -8 + ^ x29: .cfa -16 + ^
STACK CFI INIT 515bc 20 .cfa: sp 0 + .ra: x30
STACK CFI 515c0 .cfa: sp 16 +
STACK CFI INIT 515dc 2c .cfa: sp 0 + .ra: x30
STACK CFI 515e8 .cfa: x29 16 + .ra: .cfa -8 + ^ x29: .cfa -16 + ^
STACK CFI INIT 51608 68 .cfa: sp 0 + .ra: x30
STACK CFI 51614 .cfa: x29 16 + .ra: .cfa -8 + ^ x29: .cfa -16 + ^
STACK CFI INIT 51670 20c .cfa: sp 0 + .ra: x30
STACK CFI 51680 .cfa: x29 16 + .ra: .cfa -8 + ^ x28: .cfa -32 + ^ x29: .cfa -16 + ^
STACK CFI INIT 5187c 1a0 .cfa: sp 0 + .ra: x30
STACK CFI 51888 .cfa: x29 16 + .ra: .cfa -8 + ^ x29: .cfa -16 + ^
STACK CFI INIT 51a1c 120 .cfa: sp 0 + .ra: x30
STACK CFI 51a28 .cfa: x29 16 + .ra: .cfa -8 + ^ x29: .cfa -16 + ^
STACK CFI INIT 51b3c 110 .cfa: sp 0 + .ra: x30
STACK CFI 51b48 .cfa: x29 16 + .ra: .cfa -8 + ^ x29: .cfa -16 + ^
STACK CFI INIT 51c4c 24 .cfa: sp 0 + .ra: x30
STACK CFI 51c50 .cfa: sp 16 +
STACK CFI INIT 51c70 124 .cfa: sp 0 + .ra: x30
STACK CFI 51c7c .cfa: x29 16 + .ra: .cfa -8 + ^ x29: .cfa -16 + ^
STACK CFI INIT 51d94 54 .cfa: sp 0 + .ra: x30
STACK CFI 51da0 .cfa: x29 16 + .ra: .cfa -8 + ^ x29: .cfa -16 + ^
STACK CFI INIT 51de8 bc .cfa: sp 0 + .ra: x30
STACK CFI 51df4 .cfa: x29 16 + .ra: .cfa -8 + ^ x29: .cfa -16 + ^
STACK CFI INIT 51ea4 40 .cfa: sp 0 + .ra: x30
STACK CFI 51eb0 .cfa: x29 16 + .ra: .cfa -8 + ^ x29: .cfa -16 + ^
STACK CFI INIT 51ee4 3c .cfa: sp 0 + .ra: x30
STACK CFI 51ef0 .cfa: x29 16 + .ra: .cfa -8 + ^ x29: .cfa -16 + ^
STACK CFI INIT 51f20 48 .cfa: sp 0 + .ra: x30
STACK CFI 51f2c .cfa: x29 16 + .ra: .cfa -8 + ^ x29: .cfa -16 + ^
STACK CFI INIT 51f68 18 .cfa: sp 0 + .ra: x30
STACK CFI 51f6c .cfa: sp 16 +
STACK CFI INIT 51f80 198 .cfa: sp 0 + .ra: x30
STACK CFI 51f8c .cfa: x29 16 + .ra: .cfa -8 + ^ x29: .cfa -16 + ^
STACK CFI INIT 52118 28 .cfa: sp 0 + .ra: x30
STACK CFI 5211c .cfa: sp 16 +
STACK CFI INIT 52140 24 .cfa: sp 0 + .ra: x30
STACK CFI 5214c .cfa: x29 16 + .ra: .cfa -8 + ^ x29: .cfa -16 + ^
STACK CFI INIT 52164 54 .cfa: sp 0 + .ra: x30
STACK CFI 52170 .cfa: x29 16 + .ra: .cfa -8 + ^ x29: .cfa -16 + ^
STACK CFI INIT 521b8 24 .cfa: sp 0 + .ra: x30
STACK CFI 521c4 .cfa: x29 16 + .ra: .cfa -8 + ^ x29: .cfa -16 + ^
STACK CFI INIT 521dc f8 .cfa: sp 0 + .ra: x30
STACK CFI 521e8 .cfa: x29 16 + .ra: .cfa -8 + ^ x29: .cfa -16 + ^
STACK CFI INIT 522d4 24 .cfa: sp 0 + .ra: x30
STACK CFI 522e0 .cfa: x29 16 + .ra: .cfa -8 + ^ x29: .cfa -16 + ^
STACK CFI INIT 522f8 10 .cfa: sp 0 + .ra: x30
STACK CFI 522fc .cfa: sp 16 +
STACK CFI INIT 52308 34 .cfa: sp 0 + .ra: x30
STACK CFI 52314 .cfa: x29 16 + .ra: .cfa -8 + ^ x29: .cfa -16 + ^
STACK CFI INIT 5233c 84 .cfa: sp 0 + .ra: x30
STACK CFI 52348 .cfa: x29 16 + .ra: .cfa -8 + ^ x29: .cfa -16 + ^
STACK CFI INIT 523c0 84 .cfa: sp 0 + .ra: x30
STACK CFI 523cc .cfa: x29 16 + .ra: .cfa -8 + ^ x29: .cfa -16 + ^
STACK CFI INIT 52444 14 .cfa: sp 0 + .ra: x30
STACK CFI 52448 .cfa: sp 16 +
STACK CFI INIT 52458 54 .cfa: sp 0 + .ra: x30
STACK CFI 52464 .cfa: x29 16 + .ra: .cfa -8 + ^ x29: .cfa -16 + ^
STACK CFI INIT 524ac d8 .cfa: sp 0 + .ra: x30
STACK CFI 524b8 .cfa: x29 16 + .ra: .cfa -8 + ^ x29: .cfa -16 + ^
STACK CFI INIT 52584 50 .cfa: sp 0 + .ra: x30
STACK CFI 52590 .cfa: x29 16 + .ra: .cfa -8 + ^ x29: .cfa -16 + ^
STACK CFI INIT 525d4 84 .cfa: sp 0 + .ra: x30
STACK CFI 525e0 .cfa: x29 16 + .ra: .cfa -8 + ^ x29: .cfa -16 + ^
STACK CFI INIT 52658 2c .cfa: sp 0 + .ra: x30
STACK CFI 52664 .cfa: x29 16 + .ra: .cfa -8 + ^ x29: .cfa -16 + ^
STACK CFI INIT 52684 a0 .cfa: sp 0 + .ra: x30
STACK CFI 52690 .cfa: x29 16 + .ra: .cfa -8 + ^ x29: .cfa -16 + ^
STACK CFI INIT 52724 68 .cfa: sp 0 + .ra: x30
STACK CFI 52730 .cfa: x29 16 + .ra: .cfa -8 + ^ x29: .cfa -16 + ^
STACK CFI INIT 5278c 20 .cfa: sp 0 + .ra: x30
STACK CFI 52790 .cfa: sp 16 +
STACK CFI INIT 527ac 50 .cfa: sp 0 + .ra: x30
STACK CFI 527b8 .cfa: x29 16 + .ra: .cfa -8 + ^ x29: .cfa -16 + ^
STACK CFI INIT 527fc 18 .cfa: sp 0 + .ra: x30
STACK CFI 52800 .cfa: sp 16 +
STACK CFI INIT 52814 98 .cfa: sp 0 + .ra: x30
STACK CFI 52820 .cfa: x29 16 + .ra: .cfa -8 + ^ x29: .cfa -16 + ^
STACK CFI INIT 528ac 94 .cfa: sp 0 + .ra: x30
STACK CFI 528b8 .cfa: x29 16 + .ra: .cfa -8 + ^ x29: .cfa -16 + ^
STACK CFI INIT 52940 13c .cfa: sp 0 + .ra: x30
STACK CFI 5294c .cfa: x29 16 + .ra: .cfa -8 + ^ x29: .cfa -16 + ^
STACK CFI INIT 52a7c 60 .cfa: sp 0 + .ra: x30
STACK CFI 52a88 .cfa: x29 16 + .ra: .cfa -8 + ^ x29: .cfa -16 + ^
STACK CFI INIT 52adc e4 .cfa: sp 0 + .ra: x30
STACK CFI 52ae8 .cfa: x29 16 + .ra: .cfa -8 + ^ x29: .cfa -16 + ^
STACK CFI INIT 52bc0 a4 .cfa: sp 0 + .ra: x30
STACK CFI 52bcc .cfa: x29 16 + .ra: .cfa -8 + ^ x29: .cfa -16 + ^
STACK CFI INIT 52c64 34 .cfa: sp 0 + .ra: x30
STACK CFI 52c70 .cfa: x29 16 + .ra: .cfa -8 + ^ x29: .cfa -16 + ^
STACK CFI INIT 52c98 34 .cfa: sp 0 + .ra: x30
STACK CFI 52ca4 .cfa: x29 16 + .ra: .cfa -8 + ^ x29: .cfa -16 + ^
STACK CFI INIT 52ccc 20 .cfa: sp 0 + .ra: x30
STACK CFI 52cd0 .cfa: sp 16 +
STACK CFI INIT 52cec 14 .cfa: sp 0 + .ra: x30
STACK CFI 52cf0 .cfa: sp 16 +
STACK CFI INIT 52d00 b0 .cfa: sp 0 + .ra: x30
STACK CFI 52d0c .cfa: x29 16 + .ra: .cfa -8 + ^ x29: .cfa -16 + ^
STACK CFI INIT 52db0 30 .cfa: sp 0 + .ra: x30
STACK CFI 52dbc .cfa: x29 16 + .ra: .cfa -8 + ^ x29: .cfa -16 + ^
STACK CFI INIT 52de0 cc .cfa: sp 0 + .ra: x30
STACK CFI 52dec .cfa: x29 16 + .ra: .cfa -8 + ^ x29: .cfa -16 + ^
STACK CFI INIT 52eac 1a0 .cfa: sp 0 + .ra: x30
STACK CFI 52eb8 .cfa: x29 16 + .ra: .cfa -8 + ^ x29: .cfa -16 + ^
STACK CFI INIT 5304c 54 .cfa: sp 0 + .ra: x30
STACK CFI 53050 .cfa: sp 16 +
STACK CFI INIT 530a0 110 .cfa: sp 0 + .ra: x30
STACK CFI 530ac .cfa: x29 16 + .ra: .cfa -8 + ^ x29: .cfa -16 + ^
STACK CFI INIT 531b0 68 .cfa: sp 0 + .ra: x30
STACK CFI 531bc .cfa: x29 16 + .ra: .cfa -8 + ^ x29: .cfa -16 + ^
STACK CFI INIT 53218 24 .cfa: sp 0 + .ra: x30
STACK CFI 53220 .cfa: x29 16 + .ra: .cfa -8 + ^ x29: .cfa -16 + ^
STACK CFI INIT 5323c 48 .cfa: sp 0 + .ra: x30
STACK CFI 53248 .cfa: x29 16 + .ra: .cfa -8 + ^ x29: .cfa -16 + ^
STACK CFI INIT 53284 5c .cfa: sp 0 + .ra: x30
STACK CFI 53288 .cfa: sp 16 +
STACK CFI INIT 532e0 a8 .cfa: sp 0 + .ra: x30
STACK CFI 532e4 .cfa: sp 32 +
STACK CFI INIT 53388 d8 .cfa: sp 0 + .ra: x30
STACK CFI 5338c .cfa: sp 48 +
STACK CFI INIT 53460 12c .cfa: sp 0 + .ra: x30
STACK CFI 53464 .cfa: sp 32 +
STACK CFI INIT 5358c 60 .cfa: sp 0 + .ra: x30
STACK CFI 53590 .cfa: sp 32 +
STACK CFI INIT 535ec 88 .cfa: sp 0 + .ra: x30
STACK CFI 535f0 .cfa: sp 32 +
STACK CFI INIT 53674 b8 .cfa: sp 0 + .ra: x30
STACK CFI 53678 .cfa: sp 48 +
STACK CFI INIT 5372c 80 .cfa: sp 0 + .ra: x30
STACK CFI 53730 .cfa: sp 32 +
STACK CFI INIT 537ac 98 .cfa: sp 0 + .ra: x30
STACK CFI 537b0 .cfa: sp 64 +
STACK CFI INIT 53844 18c .cfa: sp 0 + .ra: x30
STACK CFI 53848 .cfa: sp 32 +
STACK CFI INIT 539d0 ac .cfa: sp 0 + .ra: x30
STACK CFI 539d4 .cfa: sp 32 +
STACK CFI INIT 53a7c 54 .cfa: sp 0 + .ra: x30
STACK CFI 53a80 .cfa: sp 32 +
STACK CFI INIT 53ad0 c8 .cfa: sp 0 + .ra: x30
STACK CFI 53ad4 .cfa: sp 48 +
STACK CFI INIT 53b98 e4 .cfa: sp 0 + .ra: x30
STACK CFI 53ba4 .cfa: x29 16 + .ra: .cfa -8 + ^ x29: .cfa -16 + ^
STACK CFI INIT 53c7c d0 .cfa: sp 0 + .ra: x30
STACK CFI 53c88 .cfa: x29 16 + .ra: .cfa -8 + ^ x29: .cfa -16 + ^
STACK CFI INIT 53d4c 24 .cfa: sp 0 + .ra: x30
STACK CFI 53d58 .cfa: x29 16 + .ra: .cfa -8 + ^ x29: .cfa -16 + ^
STACK CFI INIT 53d70 24 .cfa: sp 0 + .ra: x30
STACK CFI 53d74 .cfa: sp 16 +
STACK CFI INIT 53d94 48 .cfa: sp 0 + .ra: x30
STACK CFI 53da0 .cfa: x29 16 + .ra: .cfa -8 + ^ x29: .cfa -16 + ^
STACK CFI INIT 53ddc 19c .cfa: sp 0 + .ra: x30
STACK CFI 53dec .cfa: x29 16 + .ra: .cfa -8 + ^ x28: .cfa -32 + ^ x29: .cfa -16 + ^
STACK CFI INIT 53f78 2c .cfa: sp 0 + .ra: x30
STACK CFI 53f84 .cfa: x29 16 + .ra: .cfa -8 + ^ x29: .cfa -16 + ^
STACK CFI INIT 53fa4 98 .cfa: sp 0 + .ra: x30
STACK CFI 53fb0 .cfa: x29 16 + .ra: .cfa -8 + ^ x29: .cfa -16 + ^
STACK CFI INIT 5403c 3c .cfa: sp 0 + .ra: x30
STACK CFI 54048 .cfa: x29 16 + .ra: .cfa -8 + ^ x29: .cfa -16 + ^
STACK CFI INIT 54078 98 .cfa: sp 0 + .ra: x30
STACK CFI 54084 .cfa: x29 16 + .ra: .cfa -8 + ^ x29: .cfa -16 + ^
STACK CFI INIT 54110 88 .cfa: sp 0 + .ra: x30
STACK CFI 5411c .cfa: x29 16 + .ra: .cfa -8 + ^ x29: .cfa -16 + ^
STACK CFI INIT 54198 d8 .cfa: sp 0 + .ra: x30
STACK CFI 541a4 .cfa: x29 16 + .ra: .cfa -8 + ^ x29: .cfa -16 + ^
STACK CFI INIT 54270 64 .cfa: sp 0 + .ra: x30
STACK CFI 54274 .cfa: sp 48 +
STACK CFI INIT 542d4 98 .cfa: sp 0 + .ra: x30
STACK CFI 542e0 .cfa: x29 16 + .ra: .cfa -8 + ^ x29: .cfa -16 + ^
STACK CFI INIT 5436c b8 .cfa: sp 0 + .ra: x30
STACK CFI 54378 .cfa: x29 16 + .ra: .cfa -8 + ^ x29: .cfa -16 + ^
STACK CFI INIT 54424 c0 .cfa: sp 0 + .ra: x30
STACK CFI 54430 .cfa: x29 16 + .ra: .cfa -8 + ^ x29: .cfa -16 + ^
STACK CFI INIT 544e4 3c .cfa: sp 0 + .ra: x30
STACK CFI 544f0 .cfa: x29 16 + .ra: .cfa -8 + ^ x29: .cfa -16 + ^
STACK CFI INIT 54520 b8 .cfa: sp 0 + .ra: x30
STACK CFI 5452c .cfa: x29 16 + .ra: .cfa -8 + ^ x29: .cfa -16 + ^
STACK CFI INIT 545d8 1d8 .cfa: sp 0 + .ra: x30
STACK CFI 545e4 .cfa: x29 16 + .ra: .cfa -8 + ^ x29: .cfa -16 + ^
STACK CFI INIT 547b0 1d0 .cfa: sp 0 + .ra: x30
STACK CFI 547c0 .cfa: x29 16 + .ra: .cfa -8 + ^ x28: .cfa -32 + ^ x29: .cfa -16 + ^
STACK CFI INIT 54980 1b0 .cfa: sp 0 + .ra: x30
STACK CFI 5498c .cfa: x29 16 + .ra: .cfa -8 + ^ x29: .cfa -16 + ^
STACK CFI INIT 54b30 2c8 .cfa: sp 0 + .ra: x30
STACK CFI 54b3c .cfa: x29 16 + .ra: .cfa -8 + ^ x29: .cfa -16 + ^
STACK CFI INIT 54df8 1ac .cfa: sp 0 + .ra: x30
STACK CFI 54e04 .cfa: x29 16 + .ra: .cfa -8 + ^ x29: .cfa -16 + ^
STACK CFI INIT 54fa4 5a4 .cfa: sp 0 + .ra: x30
STACK CFI 54fc0 .cfa: sp 368 + .ra: .cfa -8 + ^ x19: .cfa -24 + ^ x20: .cfa -32 + ^ x21: .cfa -40 + ^ x22: .cfa -48 + ^ x23: .cfa -56 + ^ x24: .cfa -64 + ^ x25: .cfa -72 + ^ x26: .cfa -80 + ^ x27: .cfa -88 + ^ x28: .cfa -96 + ^ x29: .cfa -16 + ^
STACK CFI INIT 55548 d60 .cfa: sp 0 + .ra: x30
STACK CFI 55564 .cfa: sp 720 + .ra: .cfa -8 + ^ x19: .cfa -24 + ^ x20: .cfa -32 + ^ x21: .cfa -40 + ^ x22: .cfa -48 + ^ x23: .cfa -56 + ^ x24: .cfa -64 + ^ x25: .cfa -72 + ^ x26: .cfa -80 + ^ x27: .cfa -88 + ^ x28: .cfa -96 + ^ x29: .cfa -16 + ^
STACK CFI INIT 562a8 630 .cfa: sp 0 + .ra: x30
STACK CFI 562b8 .cfa: x29 16 + .ra: .cfa -8 + ^ x28: .cfa -32 + ^ x29: .cfa -16 + ^
STACK CFI INIT 568d8 78 .cfa: sp 0 + .ra: x30
STACK CFI 568e4 .cfa: x29 16 + .ra: .cfa -8 + ^ x29: .cfa -16 + ^
STACK CFI INIT 56950 1ac .cfa: sp 0 + .ra: x30
STACK CFI 5695c .cfa: x29 16 + .ra: .cfa -8 + ^ x29: .cfa -16 + ^
STACK CFI INIT 56afc 2d8 .cfa: sp 0 + .ra: x30
STACK CFI 56b08 .cfa: x29 16 + .ra: .cfa -8 + ^ x29: .cfa -16 + ^
STACK CFI INIT 56dd4 77c .cfa: sp 0 + .ra: x30
STACK CFI 56dec .cfa: x29 16 + .ra: .cfa -8 + ^ x19: .cfa -24 + ^ x20: .cfa -32 + ^ x21: .cfa -40 + ^ x22: .cfa -48 + ^ x28: .cfa -64 + ^ x29: .cfa -16 + ^
STACK CFI INIT 57550 20 .cfa: sp 0 + .ra: x30
STACK CFI 57554 .cfa: sp 16 +
STACK CFI INIT 57570 108 .cfa: sp 0 + .ra: x30
STACK CFI 57574 .cfa: sp 32 +
STACK CFI INIT 57678 18c .cfa: sp 0 + .ra: x30
STACK CFI 57684 .cfa: x29 16 + .ra: .cfa -8 + ^ x29: .cfa -16 + ^
STACK CFI INIT 57804 194 .cfa: sp 0 + .ra: x30
STACK CFI 57810 .cfa: x29 16 + .ra: .cfa -8 + ^ x29: .cfa -16 + ^
STACK CFI INIT 579a0 9c .cfa: sp 0 + .ra: x30
STACK CFI INIT 57a3c 90 .cfa: sp 0 + .ra: x30
STACK CFI 57a48 .cfa: x29 16 + .ra: .cfa -8 + ^ x29: .cfa -16 + ^
STACK CFI INIT 57acc 58 .cfa: sp 0 + .ra: x30
STACK CFI 57ad8 .cfa: x29 16 + .ra: .cfa -8 + ^ x29: .cfa -16 + ^
STACK CFI INIT 57b24 28 .cfa: sp 0 + .ra: x30
STACK CFI 57b28 .cfa: sp 16 +
STACK CFI INIT 57b4c 24 .cfa: sp 0 + .ra: x30
STACK CFI 57b58 .cfa: x29 16 + .ra: .cfa -8 + ^ x29: .cfa -16 + ^
STACK CFI INIT 57b70 30 .cfa: sp 0 + .ra: x30
STACK CFI 57b7c .cfa: x29 16 + .ra: .cfa -8 + ^ x29: .cfa -16 + ^
STACK CFI INIT 57ba0 298 .cfa: sp 0 + .ra: x30
STACK CFI 57bb0 .cfa: x29 16 + .ra: .cfa -8 + ^ x28: .cfa -32 + ^ x29: .cfa -16 + ^
STACK CFI INIT 57e38 10 .cfa: sp 0 + .ra: x30
STACK CFI 57e3c .cfa: sp 16 +
STACK CFI INIT 57e48 c .cfa: sp 0 + .ra: x30
STACK CFI 57e4c .cfa: sp 16 +
STACK CFI INIT 57e54 28 .cfa: sp 0 + .ra: x30
STACK CFI 57e60 .cfa: x29 16 + .ra: .cfa -8 + ^ x29: .cfa -16 + ^
STACK CFI INIT 57e7c a8 .cfa: sp 0 + .ra: x30
STACK CFI 57e88 .cfa: x29 16 + .ra: .cfa -8 + ^ x29: .cfa -16 + ^
STACK CFI INIT 57f24 88 .cfa: sp 0 + .ra: x30
STACK CFI 57f30 .cfa: x29 16 + .ra: .cfa -8 + ^ x29: .cfa -16 + ^
STACK CFI INIT 57fac a8 .cfa: sp 0 + .ra: x30
STACK CFI 57fb8 .cfa: x29 16 + .ra: .cfa -8 + ^ x29: .cfa -16 + ^
STACK CFI INIT 58054 98 .cfa: sp 0 + .ra: x30
STACK CFI 58060 .cfa: x29 16 + .ra: .cfa -8 + ^ x29: .cfa -16 + ^
STACK CFI INIT 580ec 20 .cfa: sp 0 + .ra: x30
STACK CFI 580f0 .cfa: sp 16 +
STACK CFI INIT 5810c 140 .cfa: sp 0 + .ra: x30
STACK CFI 58114 .cfa: sp 48 + .ra: .cfa -16 + ^
STACK CFI INIT 5824c e8 .cfa: sp 0 + .ra: x30
STACK CFI 58258 .cfa: x29 16 + .ra: .cfa -8 + ^ x29: .cfa -16 + ^
STACK CFI INIT 58334 e8 .cfa: sp 0 + .ra: x30
STACK CFI 58340 .cfa: x29 16 + .ra: .cfa -8 + ^ x29: .cfa -16 + ^
STACK CFI INIT 5841c 20 .cfa: sp 0 + .ra: x30
STACK CFI 58420 .cfa: sp 16 +
STACK CFI INIT 5843c 20 .cfa: sp 0 + .ra: x30
STACK CFI 58440 .cfa: sp 16 +
STACK CFI INIT 5845c 148 .cfa: sp 0 + .ra: x30
STACK CFI 58464 .cfa: sp 48 + .ra: .cfa -16 + ^
STACK CFI INIT 585a4 24c .cfa: sp 0 + .ra: x30
STACK CFI 585a8 .cfa: sp 80 +
STACK CFI INIT 587f0 250 .cfa: sp 0 + .ra: x30
STACK CFI 587f4 .cfa: sp 80 +
STACK CFI INIT 58a40 4c4 .cfa: sp 0 + .ra: x30
STACK CFI 58a44 .cfa: sp 144 +
STACK CFI INIT 58f04 98 .cfa: sp 0 + .ra: x30
STACK CFI 58f10 .cfa: x29 16 + .ra: .cfa -8 + ^ x29: .cfa -16 + ^
STACK CFI INIT 58f9c 328 .cfa: sp 0 + .ra: x30
STACK CFI 58fa0 .cfa: sp 48 +
STACK CFI INIT 592c4 55c .cfa: sp 0 + .ra: x30
STACK CFI 592d0 .cfa: x29 16 + .ra: .cfa -8 + ^ x29: .cfa -16 + ^
STACK CFI INIT 59820 3b0 .cfa: sp 0 + .ra: x30
STACK CFI 59824 .cfa: sp 128 +
STACK CFI INIT 59bd0 454 .cfa: sp 0 + .ra: x30
STACK CFI 59bdc .cfa: x29 16 + .ra: .cfa -8 + ^ x29: .cfa -16 + ^
STACK CFI INIT 5a024 34 .cfa: sp 0 + .ra: x30
STACK CFI 5a030 .cfa: x29 16 + .ra: .cfa -8 + ^ x19: .cfa -32 + ^ x29: .cfa -16 + ^
STACK CFI INIT 5a058 64 .cfa: sp 0 + .ra: x30
STACK CFI 5a064 .cfa: x29 16 + .ra: .cfa -8 + ^ x19: .cfa -32 + ^ x29: .cfa -16 + ^
STACK CFI INIT 5a0bc 2c .cfa: sp 0 + .ra: x30
STACK CFI 5a0c4 .cfa: x29 16 + .ra: .cfa -8 + ^ x29: .cfa -16 + ^
STACK CFI INIT 5a0e8 4 .cfa: sp 0 + .ra: x30
STACK CFI INIT 5a0ec 2c .cfa: sp 0 + .ra: x30
STACK CFI 5a0f4 .cfa: x29 16 + .ra: .cfa -8 + ^ x29: .cfa -16 + ^
STACK CFI INIT 5a118 4 .cfa: sp 0 + .ra: x30
STACK CFI INIT 5a11c 4 .cfa: sp 0 + .ra: x30
STACK CFI INIT 5a120 4 .cfa: sp 0 + .ra: x30
STACK CFI INIT 5a124 4 .cfa: sp 0 + .ra: x30
STACK CFI INIT 5a128 4 .cfa: sp 0 + .ra: x30
STACK CFI INIT 5a12c 4 .cfa: sp 0 + .ra: x30
STACK CFI INIT 5a130 ac .cfa: sp 0 + .ra: x30
STACK CFI 5a144 .cfa: x29 16 + .ra: .cfa -8 + ^ x19: .cfa -24 + ^ x20: .cfa -32 + ^ x21: .cfa -48 + ^ x29: .cfa -16 + ^
STACK CFI INIT 5a1dc 2c .cfa: sp 0 + .ra: x30
STACK CFI 5a1e4 .cfa: x29 16 + .ra: .cfa -8 + ^ x29: .cfa -16 + ^
STACK CFI INIT 5a208 4 .cfa: sp 0 + .ra: x30
STACK CFI INIT 5a20c 2c .cfa: sp 0 + .ra: x30
STACK CFI 5a214 .cfa: x29 16 + .ra: .cfa -8 + ^ x29: .cfa -16 + ^
STACK CFI INIT 5a238 4 .cfa: sp 0 + .ra: x30
STACK CFI INIT 5a23c 4 .cfa: sp 0 + .ra: x30
STACK CFI INIT 5a240 8 .cfa: sp 0 + .ra: x30
STACK CFI INIT 5a248 4 .cfa: sp 0 + .ra: x30
STACK CFI INIT 5a24c 4 .cfa: sp 0 + .ra: x30
STACK CFI INIT 5a250 8 .cfa: sp 0 + .ra: x30
STACK CFI INIT 5a258 8c .cfa: sp 0 + .ra: x30
STACK CFI 5a268 .cfa: x29 16 + .ra: .cfa -8 + ^ x19: .cfa -24 + ^ x20: .cfa -32 + ^ x21: .cfa -40 + ^ x22: .cfa -48 + ^ x29: .cfa -16 + ^
STACK CFI INIT 5a2e4 80 .cfa: sp 0 + .ra: x30
STACK CFI 5a2f4 .cfa: x29 16 + .ra: .cfa -8 + ^ x19: .cfa -24 + ^ x20: .cfa -32 + ^ x21: .cfa -40 + ^ x22: .cfa -48 + ^ x29: .cfa -16 + ^
STACK CFI INIT 5a364 30 .cfa: sp 0 + .ra: x30
STACK CFI INIT 5a394 60 .cfa: sp 0 + .ra: x30
STACK CFI 5a3a0 .cfa: x29 16 + .ra: .cfa -8 + ^ x19: .cfa -32 + ^ x29: .cfa -16 + ^
STACK CFI INIT 5a3f4 8c .cfa: sp 0 + .ra: x30
STACK CFI 5a404 .cfa: x29 16 + .ra: .cfa -8 + ^ x19: .cfa -24 + ^ x20: .cfa -32 + ^ x21: .cfa -40 + ^ x22: .cfa -48 + ^ x29: .cfa -16 + ^
STACK CFI INIT 5a480 80 .cfa: sp 0 + .ra: x30
STACK CFI 5a490 .cfa: x29 16 + .ra: .cfa -8 + ^ x19: .cfa -24 + ^ x20: .cfa -32 + ^ x21: .cfa -40 + ^ x22: .cfa -48 + ^ x29: .cfa -16 + ^
STACK CFI INIT 5a500 30 .cfa: sp 0 + .ra: x30
STACK CFI INIT 5a530 60 .cfa: sp 0 + .ra: x30
STACK CFI 5a53c .cfa: x29 16 + .ra: .cfa -8 + ^ x19: .cfa -32 + ^ x29: .cfa -16 + ^
STACK CFI INIT 5a590 8 .cfa: sp 0 + .ra: x30
STACK CFI INIT 5a598 8 .cfa: sp 0 + .ra: x30
STACK CFI INIT 5a5a0 20 .cfa: sp 0 + .ra: x30
STACK CFI INIT 5a5c0 4c .cfa: sp 0 + .ra: x30
STACK CFI 5a5cc .cfa: x29 16 + .ra: .cfa -8 + ^ x19: .cfa -24 + ^ x20: .cfa -32 + ^ x29: .cfa -16 + ^
STACK CFI INIT 5a60c 1c .cfa: sp 0 + .ra: x30
STACK CFI 5a614 .cfa: x29 16 + .ra: .cfa -8 + ^ x29: .cfa -16 + ^
STACK CFI INIT 5a628 34 .cfa: sp 0 + .ra: x30
STACK CFI 5a630 .cfa: x29 16 + .ra: .cfa -8 + ^ x29: .cfa -16 + ^
STACK CFI INIT 5a65c 4 .cfa: sp 0 + .ra: x30
STACK CFI INIT 5a660 7c .cfa: sp 0 + .ra: x30
STACK CFI 5a670 .cfa: x29 16 + .ra: .cfa -8 + ^ x19: .cfa -24 + ^ x20: .cfa -32 + ^ x21: .cfa -40 + ^ x22: .cfa -48 + ^ x29: .cfa -16 + ^
STACK CFI INIT 5a6dc 60 .cfa: sp 0 + .ra: x30
STACK CFI 5a6e8 .cfa: x29 16 + .ra: .cfa -8 + ^ x19: .cfa -32 + ^ x29: .cfa -16 + ^
STACK CFI INIT 5a73c 20 .cfa: sp 0 + .ra: x30
STACK CFI 5a748 .cfa: x29 16 + .ra: .cfa -8 + ^ x19: .cfa -32 + ^ x29: .cfa -16 + ^
STACK CFI INIT 5a75c 8 .cfa: sp 0 + .ra: x30
STACK CFI INIT 5a764 94 .cfa: sp 0 + .ra: x30
STACK CFI 5a770 .cfa: x29 16 + .ra: .cfa -8 + ^ x19: .cfa -24 + ^ x20: .cfa -32 + ^ x29: .cfa -16 + ^
STACK CFI INIT 5a7f8 dc .cfa: sp 0 + .ra: x30
STACK CFI 5a804 .cfa: x29 16 + .ra: .cfa -8 + ^ x19: .cfa -24 + ^ x20: .cfa -32 + ^ x29: .cfa -16 + ^
STACK CFI INIT 5a8d4 50 .cfa: sp 0 + .ra: x30
STACK CFI 5a8e0 .cfa: x29 16 + .ra: .cfa -8 + ^ x19: .cfa -32 + ^ x29: .cfa -16 + ^
STACK CFI INIT 5a924 58 .cfa: sp 0 + .ra: x30
STACK CFI 5a92c .cfa: x29 16 + .ra: .cfa -8 + ^ x29: .cfa -16 + ^
STACK CFI INIT 5a97c e4 .cfa: sp 0 + .ra: x30
STACK CFI 5a990 .cfa: x29 16 + .ra: .cfa -8 + ^ x19: .cfa -24 + ^ x20: .cfa -32 + ^ x21: .cfa -40 + ^ x22: .cfa -48 + ^ x23: .cfa -64 + ^ x29: .cfa -16 + ^
STACK CFI INIT 5aa60 1c .cfa: sp 0 + .ra: x30
STACK CFI INIT 5aa7c 80 .cfa: sp 0 + .ra: x30
STACK CFI 5aa84 .cfa: x29 16 + .ra: .cfa -8 + ^ x29: .cfa -16 + ^
STACK CFI INIT 5aafc 12c .cfa: sp 0 + .ra: x30
STACK CFI 5ab0c .cfa: x29 16 + .ra: .cfa -8 + ^ x19: .cfa -24 + ^ x20: .cfa -32 + ^ x21: .cfa -48 + ^ x29: .cfa -16 + ^
STACK CFI INIT 5ac28 6c .cfa: sp 0 + .ra: x30
STACK CFI 5ac34 .cfa: x29 16 + .ra: .cfa -8 + ^ x19: .cfa -24 + ^ x20: .cfa -32 + ^ x29: .cfa -16 + ^
STACK CFI INIT 5ac94 28 .cfa: sp 0 + .ra: x30
STACK CFI 5ac9c .cfa: x29 16 + .ra: .cfa -8 + ^ x29: .cfa -16 + ^
STACK CFI INIT 5acbc 20 .cfa: sp 0 + .ra: x30
STACK CFI 5acc4 .cfa: x29 16 + .ra: .cfa -8 + ^ x29: .cfa -16 + ^
STACK CFI INIT 5acdc 90 .cfa: sp 0 + .ra: x30
STACK CFI 5ace8 .cfa: x29 16 + .ra: .cfa -8 + ^ x19: .cfa -24 + ^ x20: .cfa -32 + ^ x29: .cfa -16 + ^
STACK CFI INIT 5ad6c 3c .cfa: sp 0 + .ra: x30
STACK CFI 5ad74 .cfa: x29 16 + .ra: .cfa -8 + ^ x29: .cfa -16 + ^
STACK CFI INIT 5ada8 34 .cfa: sp 0 + .ra: x30
STACK CFI 5adb0 .cfa: x29 16 + .ra: .cfa -8 + ^ x29: .cfa -16 + ^
STACK CFI INIT 5addc 34 .cfa: sp 0 + .ra: x30
STACK CFI 5ade4 .cfa: x29 16 + .ra: .cfa -8 + ^ x29: .cfa -16 + ^
STACK CFI INIT 5ae10 bc .cfa: sp 0 + .ra: x30
STACK CFI 5ae20 .cfa: x29 16 + .ra: .cfa -8 + ^ x19: .cfa -24 + ^ x20: .cfa -32 + ^ x21: .cfa -48 + ^ x29: .cfa -16 + ^
STACK CFI INIT 5aecc 78 .cfa: sp 0 + .ra: x30
STACK CFI 5aed8 .cfa: x29 16 + .ra: .cfa -8 + ^ x19: .cfa -32 + ^ x29: .cfa -16 + ^
STACK CFI INIT 5af44 74 .cfa: sp 0 + .ra: x30
STACK CFI 5af50 .cfa: x29 16 + .ra: .cfa -8 + ^ x19: .cfa -32 + ^ x29: .cfa -16 + ^
STACK CFI INIT 5afb8 10 .cfa: sp 0 + .ra: x30
STACK CFI INIT 5afc8 40 .cfa: sp 0 + .ra: x30
STACK CFI 5afcc .cfa: sp 16 + .ra: .cfa -8 + ^ x19: .cfa -16 + ^
STACK CFI INIT 5b008 18 .cfa: sp 0 + .ra: x30
STACK CFI 5b010 .cfa: x29 16 + .ra: .cfa -8 + ^ x29: .cfa -16 + ^
STACK CFI INIT 5b020 18 .cfa: sp 0 + .ra: x30
STACK CFI 5b028 .cfa: x29 16 + .ra: .cfa -8 + ^ x29: .cfa -16 + ^
STACK CFI INIT 5b038 10 .cfa: sp 0 + .ra: x30
STACK CFI INIT 5b048 40 .cfa: sp 0 + .ra: x30
STACK CFI 5b054 .cfa: x29 16 + .ra: .cfa -8 + ^ x19: .cfa -32 + ^ x29: .cfa -16 + ^
STACK CFI INIT 5b088 1c .cfa: sp 0 + .ra: x30
STACK CFI INIT 5b0a4 10 .cfa: sp 0 + .ra: x30
STACK CFI INIT 5b0b4 1c8 .cfa: sp 0 + .ra: x30
STACK CFI 5b0cc .cfa: x29 16 + .ra: .cfa -8 + ^ x19: .cfa -24 + ^ x20: .cfa -32 + ^ x21: .cfa -40 + ^ x22: .cfa -48 + ^ x23: .cfa -64 + ^ x29: .cfa -16 + ^
STACK CFI INIT 5b27c 608 .cfa: sp 0 + .ra: x30
STACK CFI 5b29c .cfa: x29 16 + .ra: .cfa -8 + ^ x19: .cfa -24 + ^ x20: .cfa -32 + ^ x21: .cfa -40 + ^ x22: .cfa -48 + ^ x23: .cfa -56 + ^ x24: .cfa -64 + ^ x25: .cfa -72 + ^ x26: .cfa -80 + ^ x27: .cfa -88 + ^ x28: .cfa -96 + ^ x29: .cfa -16 + ^
STACK CFI INIT 5b884 2c .cfa: sp 0 + .ra: x30
STACK CFI 5b890 .cfa: x29 16 + .ra: .cfa -8 + ^ x19: .cfa -24 + ^ x20: .cfa -32 + ^ x29: .cfa -16 + ^
STACK CFI INIT 5b8b0 374 .cfa: sp 0 + .ra: x30
STACK CFI 5b8d0 .cfa: x29 16 + .ra: .cfa -8 + ^ x19: .cfa -24 + ^ x20: .cfa -32 + ^ x21: .cfa -40 + ^ x22: .cfa -48 + ^ x23: .cfa -56 + ^ x24: .cfa -64 + ^ x25: .cfa -72 + ^ x26: .cfa -80 + ^ x27: .cfa -88 + ^ x28: .cfa -96 + ^ x29: .cfa -16 + ^
STACK CFI INIT 5bc24 154 .cfa: sp 0 + .ra: x30
STACK CFI 5bc2c .cfa: x29 16 + .ra: .cfa -8 + ^ x29: .cfa -16 + ^
STACK CFI INIT 5bd78 14 .cfa: sp 0 + .ra: x30
STACK CFI 5bd80 .cfa: x29 16 + .ra: .cfa -8 + ^ x29: .cfa -16 + ^
STACK CFI INIT 5bd8c 14 .cfa: sp 0 + .ra: x30
STACK CFI 5bd94 .cfa: x29 16 + .ra: .cfa -8 + ^ x29: .cfa -16 + ^
STACK CFI INIT 5bda0 6c .cfa: sp 0 + .ra: x30
STACK CFI 5bdb0 .cfa: x29 16 + .ra: .cfa -8 + ^ x19: .cfa -24 + ^ x20: .cfa -32 + ^ x29: .cfa -16 + ^
STACK CFI INIT 5be0c f8 .cfa: sp 0 + .ra: x30
STACK CFI 5be18 .cfa: x29 16 + .ra: .cfa -8 + ^ x19: .cfa -24 + ^ x20: .cfa -32 + ^ x29: .cfa -16 + ^
STACK CFI INIT 5bf04 5c .cfa: sp 0 + .ra: x30
STACK CFI 5bf14 .cfa: x29 16 + .ra: .cfa -8 + ^ x19: .cfa -24 + ^ x20: .cfa -32 + ^ x21: .cfa -48 + ^ x29: .cfa -16 + ^
STACK CFI INIT 5bf60 28 .cfa: sp 0 + .ra: x30
STACK CFI INIT 5bf88 fc .cfa: sp 0 + .ra: x30
STACK CFI 5bf94 .cfa: x29 16 + .ra: .cfa -8 + ^ x19: .cfa -24 + ^ x20: .cfa -32 + ^ x29: .cfa -16 + ^
STACK CFI INIT 5c084 28 .cfa: sp 0 + .ra: x30
STACK CFI INIT 5c0ac 4 .cfa: sp 0 + .ra: x30
STACK CFI INIT 5c0b0 4 .cfa: sp 0 + .ra: x30
STACK CFI INIT 5c0b4 4 .cfa: sp 0 + .ra: x30
STACK CFI INIT 5c0b8 4 .cfa: sp 0 + .ra: x30
STACK CFI INIT 5c0bc 24 .cfa: sp 0 + .ra: x30
STACK CFI 5c0c8 .cfa: x29 16 + .ra: .cfa -8 + ^ x19: .cfa -32 + ^ x29: .cfa -16 + ^
STACK CFI INIT 5c0e0 24 .cfa: sp 0 + .ra: x30
STACK CFI 5c0ec .cfa: x29 16 + .ra: .cfa -8 + ^ x19: .cfa -32 + ^ x29: .cfa -16 + ^
STACK CFI INIT 5c104 24 .cfa: sp 0 + .ra: x30
STACK CFI 5c110 .cfa: x29 16 + .ra: .cfa -8 + ^ x19: .cfa -32 + ^ x29: .cfa -16 + ^
STACK CFI INIT 5c128 24 .cfa: sp 0 + .ra: x30
STACK CFI 5c134 .cfa: x29 16 + .ra: .cfa -8 + ^ x19: .cfa -32 + ^ x29: .cfa -16 + ^
STACK CFI INIT 5c14c 24 .cfa: sp 0 + .ra: x30
STACK CFI 5c158 .cfa: x29 16 + .ra: .cfa -8 + ^ x19: .cfa -32 + ^ x29: .cfa -16 + ^
STACK CFI INIT 5c170 24 .cfa: sp 0 + .ra: x30
STACK CFI 5c17c .cfa: x29 16 + .ra: .cfa -8 + ^ x19: .cfa -32 + ^ x29: .cfa -16 + ^
STACK CFI INIT 5c194 24 .cfa: sp 0 + .ra: x30
STACK CFI 5c1a0 .cfa: x29 16 + .ra: .cfa -8 + ^ x19: .cfa -32 + ^ x29: .cfa -16 + ^
STACK CFI INIT 5c1b8 24 .cfa: sp 0 + .ra: x30
STACK CFI 5c1c4 .cfa: x29 16 + .ra: .cfa -8 + ^ x19: .cfa -32 + ^ x29: .cfa -16 + ^
STACK CFI INIT 5c1dc 24 .cfa: sp 0 + .ra: x30
STACK CFI 5c1e8 .cfa: x29 16 + .ra: .cfa -8 + ^ x19: .cfa -32 + ^ x29: .cfa -16 + ^
STACK CFI INIT 5c200 24 .cfa: sp 0 + .ra: x30
STACK CFI 5c20c .cfa: x29 16 + .ra: .cfa -8 + ^ x19: .cfa -32 + ^ x29: .cfa -16 + ^
STACK CFI INIT 5c224 c .cfa: sp 0 + .ra: x30
STACK CFI INIT 5c230 8 .cfa: sp 0 + .ra: x30
STACK CFI INIT 5c238 8 .cfa: sp 0 + .ra: x30
STACK CFI INIT 5c240 c .cfa: sp 0 + .ra: x30
STACK CFI INIT 5c24c dc .cfa: sp 0 + .ra: x30
STACK CFI 5c260 .cfa: x29 16 + .ra: .cfa -8 + ^ x19: .cfa -24 + ^ x20: .cfa -32 + ^ x21: .cfa -48 + ^ x29: .cfa -16 + ^
STACK CFI INIT 5c328 5c .cfa: sp 0 + .ra: x30
STACK CFI INIT 5c384 68 .cfa: sp 0 + .ra: x30
STACK CFI INIT 5c3ec 78 .cfa: sp 0 + .ra: x30
STACK CFI INIT 5c464 40 .cfa: sp 0 + .ra: x30
STACK CFI INIT 5c4a4 14c .cfa: sp 0 + .ra: x30
STACK CFI 5c4b8 .cfa: x29 16 + .ra: .cfa -8 + ^ x19: .cfa -24 + ^ x20: .cfa -32 + ^ x21: .cfa -40 + ^ x22: .cfa -48 + ^ x23: .cfa -56 + ^ x24: .cfa -64 + ^ x29: .cfa -16 + ^
STACK CFI INIT 5c5f0 80 .cfa: sp 0 + .ra: x30
STACK CFI 5c5fc .cfa: x29 16 + .ra: .cfa -8 + ^ x19: .cfa -24 + ^ x20: .cfa -32 + ^ x29: .cfa -16 + ^
STACK CFI INIT 5c670 2f8 .cfa: sp 0 + .ra: x30
STACK CFI 5c688 .cfa: x29 16 + .ra: .cfa -8 + ^ x19: .cfa -24 + ^ x20: .cfa -32 + ^ x21: .cfa -40 + ^ x22: .cfa -48 + ^ x23: .cfa -64 + ^ x29: .cfa -16 + ^
STACK CFI INIT 5c968 130 .cfa: sp 0 + .ra: x30
STACK CFI 5c978 .cfa: x29 16 + .ra: .cfa -8 + ^ x19: .cfa -24 + ^ x20: .cfa -32 + ^ x21: .cfa -40 + ^ x22: .cfa -48 + ^ x29: .cfa -16 + ^
STACK CFI INIT 5ca98 7c .cfa: sp 0 + .ra: x30
STACK CFI 5caa4 .cfa: x29 16 + .ra: .cfa -8 + ^ x19: .cfa -32 + ^ x29: .cfa -16 + ^
STACK CFI INIT 5cb14 144 .cfa: sp 0 + .ra: x30
STACK CFI 5cb24 .cfa: x29 16 + .ra: .cfa -8 + ^ x19: .cfa -24 + ^ x20: .cfa -32 + ^ x21: .cfa -48 + ^ x29: .cfa -16 + ^
STACK CFI INIT 5cc58 134 .cfa: sp 0 + .ra: x30
STACK CFI 5cc68 .cfa: x29 16 + .ra: .cfa -8 + ^ x19: .cfa -24 + ^ x20: .cfa -32 + ^ x29: .cfa -16 + ^
STACK CFI INIT 5cd8c a0 .cfa: sp 0 + .ra: x30
STACK CFI INIT 5ce2c 20 .cfa: sp 0 + .ra: x30
STACK CFI INIT 5ce4c 380 .cfa: sp 0 + .ra: x30
STACK CFI 5ce68 .cfa: x29 16 + .ra: .cfa -8 + ^ x19: .cfa -24 + ^ x20: .cfa -32 + ^ x21: .cfa -40 + ^ x22: .cfa -48 + ^ x23: .cfa -56 + ^ x24: .cfa -64 + ^ x25: .cfa -72 + ^ x26: .cfa -80 + ^ x27: .cfa -96 + ^ x29: .cfa -16 + ^
STACK CFI INIT 5d1cc 38 .cfa: sp 0 + .ra: x30
STACK CFI INIT 5d204 38 .cfa: sp 0 + .ra: x30
STACK CFI INIT 5d23c 184 .cfa: sp 0 + .ra: x30
STACK CFI 5d250 .cfa: x29 16 + .ra: .cfa -8 + ^ x19: .cfa -24 + ^ x20: .cfa -32 + ^ x21: .cfa -40 + ^ x22: .cfa -48 + ^ x23: .cfa -56 + ^ x24: .cfa -64 + ^ x29: .cfa -16 + ^
STACK CFI INIT 5d3c0 f8 .cfa: sp 0 + .ra: x30
STACK CFI 5d3d0 .cfa: x29 16 + .ra: .cfa -8 + ^ x19: .cfa -24 + ^ x20: .cfa -32 + ^ x21: .cfa -40 + ^ x22: .cfa -48 + ^ x29: .cfa -16 + ^
STACK CFI INIT 5d4b8 224 .cfa: sp 0 + .ra: x30
STACK CFI 5d4d4 .cfa: x29 16 + .ra: .cfa -8 + ^ x19: .cfa -24 + ^ x20: .cfa -32 + ^ x21: .cfa -40 + ^ x22: .cfa -48 + ^ x23: .cfa -56 + ^ x24: .cfa -64 + ^ x25: .cfa -72 + ^ x26: .cfa -80 + ^ x27: .cfa -88 + ^ x28: .cfa -96 + ^ x29: .cfa -16 + ^
STACK CFI INIT 5d6dc 120 .cfa: sp 0 + .ra: x30
STACK CFI 5d6f0 .cfa: x29 16 + .ra: .cfa -8 + ^ x19: .cfa -24 + ^ x20: .cfa -32 + ^ x21: .cfa -40 + ^ x22: .cfa -48 + ^ x23: .cfa -56 + ^ x24: .cfa -64 + ^ x29: .cfa -16 + ^
STACK CFI INIT 5d7fc e0 .cfa: sp 0 + .ra: x30
STACK CFI 5d80c .cfa: x29 16 + .ra: .cfa -8 + ^ x19: .cfa -24 + ^ x20: .cfa -32 + ^ x21: .cfa -40 + ^ x22: .cfa -48 + ^ x29: .cfa -16 + ^
STACK CFI INIT 5d8dc 4 .cfa: sp 0 + .ra: x30
STACK CFI INIT 5d8e0 4 .cfa: sp 0 + .ra: x30
STACK CFI INIT 5d8e4 c .cfa: sp 0 + .ra: x30
STACK CFI INIT 5d8f0 4 .cfa: sp 0 + .ra: x30
STACK CFI INIT 5d8f4 c .cfa: sp 0 + .ra: x30
STACK CFI INIT 5d900 14 .cfa: sp 0 + .ra: x30
STACK CFI INIT 5d914 4 .cfa: sp 0 + .ra: x30
STACK CFI INIT 5d918 c .cfa: sp 0 + .ra: x30
STACK CFI INIT 5d924 14 .cfa: sp 0 + .ra: x30
STACK CFI INIT 5d938 4 .cfa: sp 0 + .ra: x30
STACK CFI INIT 5d93c c .cfa: sp 0 + .ra: x30
STACK CFI INIT 5d948 54 .cfa: sp 0 + .ra: x30
STACK CFI 5d954 .cfa: x29 16 + .ra: .cfa -8 + ^ x19: .cfa -32 + ^ x29: .cfa -16 + ^
STACK CFI INIT 5d99c 5c .cfa: sp 0 + .ra: x30
STACK CFI 5d9a8 .cfa: x29 16 + .ra: .cfa -8 + ^ x19: .cfa -32 + ^ x29: .cfa -16 + ^
STACK CFI INIT 5d9f8 8 .cfa: sp 0 + .ra: x30
STACK CFI INIT 5da00 54 .cfa: sp 0 + .ra: x30
STACK CFI 5da0c .cfa: x29 16 + .ra: .cfa -8 + ^ x19: .cfa -32 + ^ x29: .cfa -16 + ^
STACK CFI INIT 5da54 5c .cfa: sp 0 + .ra: x30
STACK CFI 5da60 .cfa: x29 16 + .ra: .cfa -8 + ^ x19: .cfa -32 + ^ x29: .cfa -16 + ^
STACK CFI INIT 5dab0 8 .cfa: sp 0 + .ra: x30
STACK CFI INIT 5dab8 5c .cfa: sp 0 + .ra: x30
STACK CFI 5dac4 .cfa: x29 16 + .ra: .cfa -8 + ^ x19: .cfa -32 + ^ x29: .cfa -16 + ^
STACK CFI INIT 5db14 5c .cfa: sp 0 + .ra: x30
STACK CFI 5db20 .cfa: x29 16 + .ra: .cfa -8 + ^ x19: .cfa -32 + ^ x29: .cfa -16 + ^
STACK CFI INIT 5db70 5c .cfa: sp 0 + .ra: x30
STACK CFI 5db7c .cfa: x29 16 + .ra: .cfa -8 + ^ x19: .cfa -32 + ^ x29: .cfa -16 + ^
STACK CFI INIT 5dbcc 5c .cfa: sp 0 + .ra: x30
STACK CFI 5dbd8 .cfa: x29 16 + .ra: .cfa -8 + ^ x19: .cfa -32 + ^ x29: .cfa -16 + ^
STACK CFI INIT 5dc28 5c .cfa: sp 0 + .ra: x30
STACK CFI 5dc34 .cfa: x29 16 + .ra: .cfa -8 + ^ x19: .cfa -32 + ^ x29: .cfa -16 + ^
STACK CFI INIT 5dc84 5c .cfa: sp 0 + .ra: x30
STACK CFI 5dc90 .cfa: x29 16 + .ra: .cfa -8 + ^ x19: .cfa -32 + ^ x29: .cfa -16 + ^
STACK CFI INIT 5dce0 5c .cfa: sp 0 + .ra: x30
STACK CFI 5dcec .cfa: x29 16 + .ra: .cfa -8 + ^ x19: .cfa -32 + ^ x29: .cfa -16 + ^
STACK CFI INIT 5dd3c 4 .cfa: sp 0 + .ra: x30
STACK CFI INIT 5dd40 4 .cfa: sp 0 + .ra: x30
STACK CFI INIT 5dd44 14 .cfa: sp 0 + .ra: x30
STACK CFI INIT 5dd58 4 .cfa: sp 0 + .ra: x30
STACK CFI INIT 5dd5c 24 .cfa: sp 0 + .ra: x30
STACK CFI 5dd68 .cfa: x29 16 + .ra: .cfa -8 + ^ x19: .cfa -32 + ^ x29: .cfa -16 + ^
STACK CFI INIT 5dd80 c .cfa: sp 0 + .ra: x30
STACK CFI INIT 5dd8c 14 .cfa: sp 0 + .ra: x30
STACK CFI INIT 5dda0 4 .cfa: sp 0 + .ra: x30
STACK CFI INIT 5dda4 24 .cfa: sp 0 + .ra: x30
STACK CFI 5ddb0 .cfa: x29 16 + .ra: .cfa -8 + ^ x19: .cfa -32 + ^ x29: .cfa -16 + ^
STACK CFI INIT 5ddc8 c .cfa: sp 0 + .ra: x30
STACK CFI INIT 5ddd4 f0 .cfa: sp 0 + .ra: x30
STACK CFI 5ddf0 .cfa: x29 16 + .ra: .cfa -8 + ^ x19: .cfa -24 + ^ x20: .cfa -32 + ^ x21: .cfa -40 + ^ x22: .cfa -48 + ^ x23: .cfa -56 + ^ x24: .cfa -64 + ^ x25: .cfa -72 + ^ x28: .cfa -80 + ^ x29: .cfa -16 + ^
STACK CFI INIT 5dec4 28 .cfa: sp 0 + .ra: x30
STACK CFI INIT 5deec 28 .cfa: sp 0 + .ra: x30
STACK CFI INIT 5df14 120 .cfa: sp 0 + .ra: x30
STACK CFI 5df28 .cfa: x29 16 + .ra: .cfa -8 + ^ x19: .cfa -24 + ^ x20: .cfa -32 + ^ x28: .cfa -48 + ^ x29: .cfa -16 + ^
STACK CFI INIT 5e034 1c .cfa: sp 0 + .ra: x30
STACK CFI 5e03c .cfa: x29 16 + .ra: .cfa -8 + ^ x29: .cfa -16 + ^
STACK CFI INIT 5e050 694 .cfa: sp 0 + .ra: x30
STACK CFI 5e074 .cfa: x29 16 + .ra: .cfa -8 + ^ x19: .cfa -24 + ^ x20: .cfa -32 + ^ x21: .cfa -40 + ^ x22: .cfa -48 + ^ x23: .cfa -56 + ^ x24: .cfa -64 + ^ x25: .cfa -72 + ^ x26: .cfa -80 + ^ x27: .cfa -88 + ^ x28: .cfa -96 + ^ x29: .cfa -16 + ^
STACK CFI INIT 5e6e4 e0c .cfa: sp 0 + .ra: x30
STACK CFI 5e704 .cfa: x29 16 + .ra: .cfa -8 + ^ x19: .cfa -24 + ^ x20: .cfa -32 + ^ x21: .cfa -40 + ^ x22: .cfa -48 + ^ x23: .cfa -56 + ^ x24: .cfa -64 + ^ x25: .cfa -72 + ^ x26: .cfa -80 + ^ x27: .cfa -88 + ^ x28: .cfa -96 + ^ x29: .cfa -16 + ^
STACK CFI INIT 5f4f0 19b4 .cfa: sp 0 + .ra: x30
STACK CFI 5f504 .cfa: x29 16 + .ra: .cfa -8 + ^ x19: .cfa -24 + ^ x20: .cfa -32 + ^ x21: .cfa -40 + ^ x22: .cfa -48 + ^ x23: .cfa -64 + ^ x29: .cfa -16 + ^
STACK CFI INIT 60ea4 d78 .cfa: sp 0 + .ra: x30
STACK CFI 60ec4 .cfa: x29 16 + .ra: .cfa -8 + ^ x19: .cfa -24 + ^ x20: .cfa -32 + ^ x21: .cfa -40 + ^ x22: .cfa -48 + ^ x23: .cfa -56 + ^ x24: .cfa -64 + ^ x25: .cfa -72 + ^ x26: .cfa -80 + ^ x27: .cfa -88 + ^ x28: .cfa -96 + ^ x29: .cfa -16 + ^
STACK CFI INIT 61c1c 268 .cfa: sp 0 + .ra: x30
STACK CFI 61c34 .cfa: x29 16 + .ra: .cfa -8 + ^ x19: .cfa -24 + ^ x20: .cfa -32 + ^ x21: .cfa -40 + ^ x22: .cfa -48 + ^ x23: .cfa -56 + ^ x24: .cfa -64 + ^ x25: .cfa -80 + ^ x29: .cfa -16 + ^
STACK CFI INIT 61e84 2b8 .cfa: sp 0 + .ra: x30
STACK CFI INIT 6213c 8 .cfa: sp 0 + .ra: x30
STACK CFI INIT 62144 8 .cfa: sp 0 + .ra: x30
STACK CFI INIT 6214c 8 .cfa: sp 0 + .ra: x30
STACK CFI INIT 62154 4 .cfa: sp 0 + .ra: x30
STACK CFI INIT 62158 d4 .cfa: sp 0 + .ra: x30
STACK CFI 62168 .cfa: x29 16 + .ra: .cfa -8 + ^ x19: .cfa -24 + ^ x20: .cfa -32 + ^ x21: .cfa -40 + ^ x22: .cfa -48 + ^ x29: .cfa -16 + ^
STACK CFI INIT 6222c 4 .cfa: sp 0 + .ra: x30
STACK CFI INIT 62230 c .cfa: sp 0 + .ra: x30
STACK CFI INIT 6223c 4 .cfa: sp 0 + .ra: x30
STACK CFI INIT 62240 160 .cfa: sp 0 + .ra: x30
STACK CFI 62250 .cfa: x29 16 + .ra: .cfa -8 + ^ x19: .cfa -24 + ^ x20: .cfa -32 + ^ x21: .cfa -48 + ^ x29: .cfa -16 + ^
STACK CFI INIT 623a0 4 .cfa: sp 0 + .ra: x30
STACK CFI INIT 623a4 454 .cfa: sp 0 + .ra: x30
STACK CFI 623b8 .cfa: x29 16 + .ra: .cfa -8 + ^ x19: .cfa -24 + ^ x20: .cfa -32 + ^ x21: .cfa -40 + ^ x22: .cfa -48 + ^ x23: .cfa -64 + ^ x29: .cfa -16 + ^
STACK CFI INIT 627f8 5d0 .cfa: sp 0 + .ra: x30
STACK CFI 62818 .cfa: x29 16 + .ra: .cfa -8 + ^ x19: .cfa -24 + ^ x20: .cfa -32 + ^ x21: .cfa -40 + ^ x22: .cfa -48 + ^ x23: .cfa -56 + ^ x24: .cfa -64 + ^ x25: .cfa -72 + ^ x26: .cfa -80 + ^ x27: .cfa -88 + ^ x28: .cfa -96 + ^ x29: .cfa -16 + ^
STACK CFI INIT 62dc8 2a8 .cfa: sp 0 + .ra: x30
STACK CFI 62ddc .cfa: x29 16 + .ra: .cfa -8 + ^ x19: .cfa -24 + ^ x20: .cfa -32 + ^ x21: .cfa -40 + ^ x22: .cfa -48 + ^ x23: .cfa -64 + ^ x29: .cfa -16 + ^
STACK CFI INIT 63070 13c .cfa: sp 0 + .ra: x30
STACK CFI 63080 .cfa: x29 16 + .ra: .cfa -8 + ^ x19: .cfa -24 + ^ x20: .cfa -32 + ^ x21: .cfa -48 + ^ x29: .cfa -16 + ^
STACK CFI INIT 631ac 2ac .cfa: sp 0 + .ra: x30
STACK CFI 631c0 .cfa: x29 16 + .ra: .cfa -8 + ^ x19: .cfa -24 + ^ x20: .cfa -32 + ^ x21: .cfa -40 + ^ x22: .cfa -48 + ^ x23: .cfa -64 + ^ x29: .cfa -16 + ^
STACK CFI INIT 63458 180 .cfa: sp 0 + .ra: x30
STACK CFI 63470 .cfa: x29 16 + .ra: .cfa -8 + ^ x19: .cfa -24 + ^ x20: .cfa -32 + ^ x21: .cfa -40 + ^ x22: .cfa -48 + ^ x23: .cfa -56 + ^ x24: .cfa -64 + ^ x25: .cfa -72 + ^ x26: .cfa -80 + ^ x29: .cfa -16 + ^
STACK CFI INIT 635d8 5b0 .cfa: sp 0 + .ra: x30
STACK CFI 635f0 .cfa: x29 16 + .ra: .cfa -8 + ^ x19: .cfa -24 + ^ x20: .cfa -32 + ^ x21: .cfa -40 + ^ x22: .cfa -48 + ^ x23: .cfa -56 + ^ x24: .cfa -64 + ^ x25: .cfa -72 + ^ x26: .cfa -80 + ^ x29: .cfa -16 + ^
STACK CFI INIT 63b88 8c .cfa: sp 0 + .ra: x30
STACK CFI 63b98 .cfa: x29 16 + .ra: .cfa -8 + ^ x19: .cfa -24 + ^ x20: .cfa -32 + ^ x21: .cfa -48 + ^ x29: .cfa -16 + ^
STACK CFI INIT 63c14 c .cfa: sp 0 + .ra: x30
STACK CFI INIT 63c20 4 .cfa: sp 0 + .ra: x30
STACK CFI INIT 63c24 f4 .cfa: sp 0 + .ra: x30
STACK CFI 63c34 .cfa: x29 16 + .ra: .cfa -8 + ^ x19: .cfa -24 + ^ x20: .cfa -32 + ^ x21: .cfa -48 + ^ x29: .cfa -16 + ^
STACK CFI INIT 63d18 10 .cfa: sp 0 + .ra: x30
STACK CFI INIT 63d28 4 .cfa: sp 0 + .ra: x30
STACK CFI INIT 63d2c 70 .cfa: sp 0 + .ra: x30
STACK CFI 63d38 .cfa: x29 16 + .ra: .cfa -8 + ^ x19: .cfa -32 + ^ x29: .cfa -16 + ^
STACK CFI INIT 63d9c 70 .cfa: sp 0 + .ra: x30
STACK CFI 63da8 .cfa: x29 16 + .ra: .cfa -8 + ^ x19: .cfa -32 + ^ x29: .cfa -16 + ^
STACK CFI INIT 63e0c 70 .cfa: sp 0 + .ra: x30
STACK CFI 63e18 .cfa: x29 16 + .ra: .cfa -8 + ^ x19: .cfa -32 + ^ x29: .cfa -16 + ^
STACK CFI INIT 63e7c 50 .cfa: sp 0 + .ra: x30
STACK CFI 63e88 .cfa: x29 16 + .ra: .cfa -8 + ^ x19: .cfa -32 + ^ x29: .cfa -16 + ^
STACK CFI INIT 63ecc 48 .cfa: sp 0 + .ra: x30
STACK CFI 63ed8 .cfa: x29 16 + .ra: .cfa -8 + ^ x19: .cfa -32 + ^ x29: .cfa -16 + ^
STACK CFI INIT 63f14 48 .cfa: sp 0 + .ra: x30
STACK CFI 63f20 .cfa: x29 16 + .ra: .cfa -8 + ^ x19: .cfa -32 + ^ x29: .cfa -16 + ^
STACK CFI INIT 63f5c 4 .cfa: sp 0 + .ra: x30
STACK CFI INIT 63f60 2254 .cfa: sp 0 + .ra: x30
STACK CFI 63f7c .cfa: x29 16 + .ra: .cfa -8 + ^ x19: .cfa -24 + ^ x20: .cfa -32 + ^ x21: .cfa -40 + ^ x22: .cfa -48 + ^ x23: .cfa -56 + ^ x24: .cfa -64 + ^ x25: .cfa -72 + ^ x26: .cfa -80 + ^ x29: .cfa -16 + ^
STACK CFI INIT 661b4 748 .cfa: sp 0 + .ra: x30
STACK CFI 661c8 .cfa: x29 16 + .ra: .cfa -8 + ^ x19: .cfa -24 + ^ x20: .cfa -32 + ^ x21: .cfa -40 + ^ x22: .cfa -48 + ^ x23: .cfa -56 + ^ x24: .cfa -64 + ^ x29: .cfa -16 + ^
STACK CFI INIT 668fc 320 .cfa: sp 0 + .ra: x30
STACK CFI 6690c .cfa: x29 16 + .ra: .cfa -8 + ^ x19: .cfa -24 + ^ x20: .cfa -32 + ^ x21: .cfa -40 + ^ x22: .cfa -48 + ^ x29: .cfa -16 + ^
STACK CFI INIT 66c1c 5f8 .cfa: sp 0 + .ra: x30
STACK CFI 66c34 .cfa: x29 16 + .ra: .cfa -8 + ^ x19: .cfa -24 + ^ x20: .cfa -32 + ^ x21: .cfa -40 + ^ x22: .cfa -48 + ^ x23: .cfa -56 + ^ x24: .cfa -64 + ^ x25: .cfa -80 + ^ x29: .cfa -16 + ^
STACK CFI INIT 67214 bc .cfa: sp 0 + .ra: x30
STACK CFI 67228 .cfa: x29 16 + .ra: .cfa -8 + ^ x19: .cfa -24 + ^ x20: .cfa -32 + ^ x21: .cfa -40 + ^ x22: .cfa -48 + ^ x23: .cfa -56 + ^ x24: .cfa -64 + ^ x29: .cfa -16 + ^
STACK CFI INIT 672d0 6d4 .cfa: sp 0 + .ra: x30
STACK CFI 672ec .cfa: x29 16 + .ra: .cfa -8 + ^ x19: .cfa -24 + ^ x20: .cfa -32 + ^ x21: .cfa -40 + ^ x22: .cfa -48 + ^ x23: .cfa -56 + ^ x24: .cfa -64 + ^ x25: .cfa -72 + ^ x26: .cfa -80 + ^ x27: .cfa -88 + ^ x28: .cfa -96 + ^ x29: .cfa -16 + ^
STACK CFI INIT 679a4 250 .cfa: sp 0 + .ra: x30
STACK CFI 679b8 .cfa: x29 16 + .ra: .cfa -8 + ^ x19: .cfa -24 + ^ x20: .cfa -32 + ^ x21: .cfa -40 + ^ x22: .cfa -48 + ^ x23: .cfa -64 + ^ x29: .cfa -16 + ^
STACK CFI INIT 67bf4 15c .cfa: sp 0 + .ra: x30
STACK CFI 67c08 .cfa: x29 16 + .ra: .cfa -8 + ^ x19: .cfa -24 + ^ x20: .cfa -32 + ^ x21: .cfa -40 + ^ x22: .cfa -48 + ^ x23: .cfa -56 + ^ x24: .cfa -64 + ^ x29: .cfa -16 + ^
STACK CFI INIT 67d50 2e4 .cfa: sp 0 + .ra: x30
STACK CFI 67d60 .cfa: x29 16 + .ra: .cfa -8 + ^ x19: .cfa -24 + ^ x20: .cfa -32 + ^ x21: .cfa -40 + ^ x22: .cfa -48 + ^ x29: .cfa -16 + ^
STACK CFI INIT 68034 4 .cfa: sp 0 + .ra: x30
STACK CFI INIT 68038 a4 .cfa: sp 0 + .ra: x30
STACK CFI 68048 .cfa: x29 16 + .ra: .cfa -8 + ^ x19: .cfa -24 + ^ x20: .cfa -32 + ^ x21: .cfa -48 + ^ x29: .cfa -16 + ^
STACK CFI INIT 680dc 4 .cfa: sp 0 + .ra: x30
STACK CFI INIT 680e0 1e0 .cfa: sp 0 + .ra: x30
STACK CFI 680f4 .cfa: x29 16 + .ra: .cfa -8 + ^ x19: .cfa -24 + ^ x20: .cfa -32 + ^ x21: .cfa -48 + ^ x29: .cfa -16 + ^
STACK CFI INIT 682c0 4 .cfa: sp 0 + .ra: x30
STACK CFI INIT 682c4 2a4 .cfa: sp 0 + .ra: x30
STACK CFI 682d8 .cfa: x29 16 + .ra: .cfa -8 + ^ x19: .cfa -24 + ^ x20: .cfa -32 + ^ x21: .cfa -48 + ^ x29: .cfa -16 + ^
STACK CFI INIT 68568 4 .cfa: sp 0 + .ra: x30
STACK CFI INIT 6856c 238 .cfa: sp 0 + .ra: x30
STACK CFI 68580 .cfa: x29 16 + .ra: .cfa -8 + ^ x19: .cfa -24 + ^ x20: .cfa -32 + ^ x21: .cfa -48 + ^ x29: .cfa -16 + ^
STACK CFI INIT 687a4 4 .cfa: sp 0 + .ra: x30
STACK CFI INIT 687a8 168 .cfa: sp 0 + .ra: x30
STACK CFI 687b8 .cfa: x29 16 + .ra: .cfa -8 + ^ x19: .cfa -24 + ^ x20: .cfa -32 + ^ x21: .cfa -48 + ^ x29: .cfa -16 + ^
STACK CFI INIT 68910 4 .cfa: sp 0 + .ra: x30
STACK CFI INIT 68914 e0 .cfa: sp 0 + .ra: x30
STACK CFI 68924 .cfa: x29 16 + .ra: .cfa -8 + ^ x19: .cfa -24 + ^ x20: .cfa -32 + ^ x21: .cfa -48 + ^ x29: .cfa -16 + ^
STACK CFI INIT 689f4 4 .cfa: sp 0 + .ra: x30
STACK CFI INIT 689f8 4 .cfa: sp 0 + .ra: x30
STACK CFI INIT 689fc 760 .cfa: sp 0 + .ra: x30
STACK CFI 68a14 .cfa: x29 16 + .ra: .cfa -8 + ^ x19: .cfa -24 + ^ x20: .cfa -32 + ^ x21: .cfa -40 + ^ x22: .cfa -48 + ^ x23: .cfa -56 + ^ x24: .cfa -64 + ^ x29: .cfa -16 + ^
STACK CFI INIT 6915c 4 .cfa: sp 0 + .ra: x30
STACK CFI INIT 69160 1b0 .cfa: sp 0 + .ra: x30
STACK CFI 69178 .cfa: x29 16 + .ra: .cfa -8 + ^ x19: .cfa -24 + ^ x20: .cfa -32 + ^ x21: .cfa -40 + ^ x22: .cfa -48 + ^ x23: .cfa -56 + ^ x24: .cfa -64 + ^ x25: .cfa -72 + ^ x26: .cfa -80 + ^ x29: .cfa -16 + ^
STACK CFI INIT 69310 4 .cfa: sp 0 + .ra: x30
STACK CFI INIT 69314 360 .cfa: sp 0 + .ra: x30
STACK CFI 69324 .cfa: x29 16 + .ra: .cfa -8 + ^ x19: .cfa -24 + ^ x20: .cfa -32 + ^ x21: .cfa -40 + ^ x22: .cfa -48 + ^ x29: .cfa -16 + ^
STACK CFI INIT 69674 4 .cfa: sp 0 + .ra: x30
STACK CFI INIT 69678 180 .cfa: sp 0 + .ra: x30
STACK CFI 6968c .cfa: x29 16 + .ra: .cfa -8 + ^ x19: .cfa -24 + ^ x20: .cfa -32 + ^ x21: .cfa -40 + ^ x22: .cfa -48 + ^ x23: .cfa -64 + ^ x29: .cfa -16 + ^
STACK CFI INIT 697f8 4 .cfa: sp 0 + .ra: x30
STACK CFI INIT 697fc 1c0 .cfa: sp 0 + .ra: x30
STACK CFI 69810 .cfa: x29 16 + .ra: .cfa -8 + ^ x19: .cfa -24 + ^ x20: .cfa -32 + ^ x21: .cfa -40 + ^ x22: .cfa -48 + ^ x23: .cfa -64 + ^ x29: .cfa -16 + ^
STACK CFI INIT 699bc 4 .cfa: sp 0 + .ra: x30
STACK CFI INIT 699c0 10c .cfa: sp 0 + .ra: x30
STACK CFI 699d0 .cfa: x29 16 + .ra: .cfa -8 + ^ x19: .cfa -24 + ^ x20: .cfa -32 + ^ x21: .cfa -48 + ^ x29: .cfa -16 + ^
STACK CFI INIT 69acc 4 .cfa: sp 0 + .ra: x30
STACK CFI INIT 69ad0 114 .cfa: sp 0 + .ra: x30
STACK CFI 69ae8 .cfa: x29 16 + .ra: .cfa -8 + ^ x19: .cfa -24 + ^ x20: .cfa -32 + ^ x21: .cfa -40 + ^ x22: .cfa -48 + ^ x23: .cfa -56 + ^ x24: .cfa -64 + ^ x25: .cfa -72 + ^ x26: .cfa -80 + ^ x29: .cfa -16 + ^
STACK CFI INIT 69be4 dc .cfa: sp 0 + .ra: x30
STACK CFI 69bf8 .cfa: x29 16 + .ra: .cfa -8 + ^ x19: .cfa -24 + ^ x20: .cfa -32 + ^ x21: .cfa -40 + ^ x22: .cfa -48 + ^ x23: .cfa -64 + ^ x29: .cfa -16 + ^
STACK CFI INIT 69cc0 160 .cfa: sp 0 + .ra: x30
STACK CFI 69cd0 .cfa: x29 16 + .ra: .cfa -8 + ^ x19: .cfa -24 + ^ x20: .cfa -32 + ^ x21: .cfa -48 + ^ x29: .cfa -16 + ^
STACK CFI INIT 69e20 4 .cfa: sp 0 + .ra: x30
STACK CFI INIT 69e24 19c .cfa: sp 0 + .ra: x30
STACK CFI 69e34 .cfa: x29 16 + .ra: .cfa -8 + ^ x19: .cfa -24 + ^ x20: .cfa -32 + ^ x21: .cfa -48 + ^ x29: .cfa -16 + ^
STACK CFI INIT 69fc0 4 .cfa: sp 0 + .ra: x30
STACK CFI INIT 69fc4 114 .cfa: sp 0 + .ra: x30
STACK CFI 69fd8 .cfa: x29 16 + .ra: .cfa -8 + ^ x19: .cfa -24 + ^ x20: .cfa -32 + ^ x21: .cfa -40 + ^ x22: .cfa -48 + ^ x23: .cfa -64 + ^ x29: .cfa -16 + ^
STACK CFI INIT 6a0d8 28c .cfa: sp 0 + .ra: x30
STACK CFI 6a0e8 .cfa: x29 16 + .ra: .cfa -8 + ^ x19: .cfa -24 + ^ x20: .cfa -32 + ^ x21: .cfa -40 + ^ x22: .cfa -48 + ^ x29: .cfa -16 + ^
STACK CFI INIT 6a364 228 .cfa: sp 0 + .ra: x30
STACK CFI 6a374 .cfa: x29 16 + .ra: .cfa -8 + ^ x19: .cfa -24 + ^ x20: .cfa -32 + ^ x21: .cfa -40 + ^ x22: .cfa -48 + ^ x29: .cfa -16 + ^
STACK CFI INIT 6a58c f4 .cfa: sp 0 + .ra: x30
STACK CFI 6a59c .cfa: x29 16 + .ra: .cfa -8 + ^ x19: .cfa -24 + ^ x20: .cfa -32 + ^ x21: .cfa -48 + ^ x29: .cfa -16 + ^
STACK CFI INIT 6a680 10 .cfa: sp 0 + .ra: x30
STACK CFI INIT 6a690 4 .cfa: sp 0 + .ra: x30
STACK CFI INIT 6a694 16c4 .cfa: sp 0 + .ra: x30
STACK CFI 6a6a8 .cfa: x29 16 + .ra: .cfa -8 + ^ x19: .cfa -24 + ^ x20: .cfa -32 + ^ x21: .cfa -40 + ^ x22: .cfa -48 + ^ x23: .cfa -64 + ^ x29: .cfa -16 + ^
STACK CFI INIT 6bd58 84 .cfa: sp 0 + .ra: x30
STACK CFI 6bd64 .cfa: x29 16 + .ra: .cfa -8 + ^ x19: .cfa -24 + ^ x20: .cfa -32 + ^ x29: .cfa -16 + ^
STACK CFI INIT 6bddc 4 .cfa: sp 0 + .ra: x30
STACK CFI INIT 6bde0 c8 .cfa: sp 0 + .ra: x30
STACK CFI 6bdec .cfa: x29 16 + .ra: .cfa -8 + ^ x19: .cfa -24 + ^ x20: .cfa -32 + ^ x29: .cfa -16 + ^
STACK CFI INIT 6bea8 4 .cfa: sp 0 + .ra: x30
STACK CFI INIT 6beac d0 .cfa: sp 0 + .ra: x30
STACK CFI 6beb8 .cfa: x29 16 + .ra: .cfa -8 + ^ x19: .cfa -24 + ^ x20: .cfa -32 + ^ x29: .cfa -16 + ^
STACK CFI INIT 6bf7c 4 .cfa: sp 0 + .ra: x30
STACK CFI INIT 6bf80 b4 .cfa: sp 0 + .ra: x30
STACK CFI 6bf8c .cfa: x29 16 + .ra: .cfa -8 + ^ x19: .cfa -24 + ^ x20: .cfa -32 + ^ x29: .cfa -16 + ^
STACK CFI INIT 6c034 10 .cfa: sp 0 + .ra: x30
STACK CFI INIT 6c044 4 .cfa: sp 0 + .ra: x30
STACK CFI INIT 6c048 108 .cfa: sp 0 + .ra: x30
STACK CFI 6c058 .cfa: x29 16 + .ra: .cfa -8 + ^ x19: .cfa -24 + ^ x20: .cfa -32 + ^ x21: .cfa -40 + ^ x22: .cfa -48 + ^ x29: .cfa -16 + ^
STACK CFI INIT 6c150 4 .cfa: sp 0 + .ra: x30
STACK CFI INIT 6c154 18c .cfa: sp 0 + .ra: x30
STACK CFI 6c164 .cfa: x29 16 + .ra: .cfa -8 + ^ x19: .cfa -24 + ^ x20: .cfa -32 + ^ x21: .cfa -48 + ^ x29: .cfa -16 + ^
STACK CFI INIT 6c2e0 4 .cfa: sp 0 + .ra: x30
STACK CFI INIT 6c2e4 234 .cfa: sp 0 + .ra: x30
STACK CFI 6c2f4 .cfa: x29 16 + .ra: .cfa -8 + ^ x19: .cfa -24 + ^ x20: .cfa -32 + ^ x21: .cfa -48 + ^ x29: .cfa -16 + ^
STACK CFI INIT 6c518 4 .cfa: sp 0 + .ra: x30
STACK CFI INIT 6c51c 248 .cfa: sp 0 + .ra: x30
STACK CFI 6c52c .cfa: x29 16 + .ra: .cfa -8 + ^ x19: .cfa -24 + ^ x20: .cfa -32 + ^ x21: .cfa -48 + ^ x29: .cfa -16 + ^
STACK CFI INIT 6c764 4 .cfa: sp 0 + .ra: x30
STACK CFI INIT 6c768 10c .cfa: sp 0 + .ra: x30
STACK CFI 6c778 .cfa: x29 16 + .ra: .cfa -8 + ^ x19: .cfa -24 + ^ x20: .cfa -32 + ^ x21: .cfa -48 + ^ x29: .cfa -16 + ^
STACK CFI INIT 6c874 4 .cfa: sp 0 + .ra: x30
STACK CFI INIT 6c878 168 .cfa: sp 0 + .ra: x30
STACK CFI 6c888 .cfa: x29 16 + .ra: .cfa -8 + ^ x19: .cfa -24 + ^ x20: .cfa -32 + ^ x21: .cfa -48 + ^ x29: .cfa -16 + ^
STACK CFI INIT 6c9e0 4 .cfa: sp 0 + .ra: x30
STACK CFI INIT 6c9e4 364 .cfa: sp 0 + .ra: x30
STACK CFI 6c9f8 .cfa: x29 16 + .ra: .cfa -8 + ^ x19: .cfa -24 + ^ x20: .cfa -32 + ^ x21: .cfa -40 + ^ x22: .cfa -48 + ^ x23: .cfa -64 + ^ x29: .cfa -16 + ^
STACK CFI INIT 6cd48 4 .cfa: sp 0 + .ra: x30
STACK CFI INIT 6cd4c 12c .cfa: sp 0 + .ra: x30
STACK CFI 6cd5c .cfa: x29 16 + .ra: .cfa -8 + ^ x19: .cfa -24 + ^ x20: .cfa -32 + ^ x21: .cfa -40 + ^ x22: .cfa -48 + ^ x29: .cfa -16 + ^
STACK CFI INIT 6ce78 4 .cfa: sp 0 + .ra: x30
STACK CFI INIT 6ce7c 234 .cfa: sp 0 + .ra: x30
STACK CFI 6ce8c .cfa: x29 16 + .ra: .cfa -8 + ^ x19: .cfa -24 + ^ x20: .cfa -32 + ^ x21: .cfa -48 + ^ x29: .cfa -16 + ^
STACK CFI INIT 6d0b0 4 .cfa: sp 0 + .ra: x30
STACK CFI INIT 6d0b4 138 .cfa: sp 0 + .ra: x30
STACK CFI 6d0c8 .cfa: x29 16 + .ra: .cfa -8 + ^ x19: .cfa -24 + ^ x20: .cfa -32 + ^ x21: .cfa -48 + ^ x29: .cfa -16 + ^
STACK CFI INIT 6d1ec 4 .cfa: sp 0 + .ra: x30
STACK CFI INIT 6d1f0 8 .cfa: sp 0 + .ra: x30
STACK CFI INIT 6d1f8 4 .cfa: sp 0 + .ra: x30
STACK CFI INIT 6d1fc c4 .cfa: sp 0 + .ra: x30
STACK CFI 6d208 .cfa: x29 16 + .ra: .cfa -8 + ^ x19: .cfa -24 + ^ x20: .cfa -32 + ^ x29: .cfa -16 + ^
STACK CFI INIT 6d2c0 4 .cfa: sp 0 + .ra: x30
STACK CFI INIT 6d2c4 2c0 .cfa: sp 0 + .ra: x30
STACK CFI 6d2d0 .cfa: x29 16 + .ra: .cfa -8 + ^ x19: .cfa -24 + ^ x20: .cfa -32 + ^ x29: .cfa -16 + ^
STACK CFI INIT 6d584 78 .cfa: sp 0 + .ra: x30
STACK CFI INIT 6d5fc 4 .cfa: sp 0 + .ra: x30
STACK CFI INIT 6d600 f8 .cfa: sp 0 + .ra: x30
STACK CFI 6d610 .cfa: x29 16 + .ra: .cfa -8 + ^ x19: .cfa -24 + ^ x20: .cfa -32 + ^ x21: .cfa -48 + ^ x29: .cfa -16 + ^
STACK CFI INIT 6d6f8 4 .cfa: sp 0 + .ra: x30
STACK CFI INIT 6d6fc 150 .cfa: sp 0 + .ra: x30
STACK CFI 6d70c .cfa: x29 16 + .ra: .cfa -8 + ^ x19: .cfa -24 + ^ x20: .cfa -32 + ^ x21: .cfa -48 + ^ x29: .cfa -16 + ^
STACK CFI INIT 6d84c 4 .cfa: sp 0 + .ra: x30
STACK CFI INIT 6d850 13c .cfa: sp 0 + .ra: x30
STACK CFI 6d860 .cfa: x29 16 + .ra: .cfa -8 + ^ x19: .cfa -24 + ^ x20: .cfa -32 + ^ x21: .cfa -48 + ^ x29: .cfa -16 + ^
STACK CFI INIT 6d98c 4 .cfa: sp 0 + .ra: x30
STACK CFI INIT 6d990 1a4 .cfa: sp 0 + .ra: x30
STACK CFI 6d9a0 .cfa: x29 16 + .ra: .cfa -8 + ^ x19: .cfa -24 + ^ x20: .cfa -32 + ^ x21: .cfa -40 + ^ x22: .cfa -48 + ^ x29: .cfa -16 + ^
STACK CFI INIT 6db34 4 .cfa: sp 0 + .ra: x30
STACK CFI INIT 6db38 c8 .cfa: sp 0 + .ra: x30
STACK CFI 6db44 .cfa: x29 16 + .ra: .cfa -8 + ^ x19: .cfa -24 + ^ x20: .cfa -32 + ^ x29: .cfa -16 + ^
STACK CFI INIT 6dc00 4 .cfa: sp 0 + .ra: x30
STACK CFI INIT 6dc04 f4 .cfa: sp 0 + .ra: x30
STACK CFI 6dc14 .cfa: x29 16 + .ra: .cfa -8 + ^ x19: .cfa -24 + ^ x20: .cfa -32 + ^ x21: .cfa -48 + ^ x29: .cfa -16 + ^
STACK CFI INIT 6dcf8 4 .cfa: sp 0 + .ra: x30
STACK CFI INIT 6dcfc 2b0 .cfa: sp 0 + .ra: x30
STACK CFI 6dd08 .cfa: x29 16 + .ra: .cfa -8 + ^ x19: .cfa -24 + ^ x20: .cfa -32 + ^ x29: .cfa -16 + ^
STACK CFI INIT 6dfac 88 .cfa: sp 0 + .ra: x30
STACK CFI INIT 6e034 4 .cfa: sp 0 + .ra: x30
STACK CFI INIT 6e038 64 .cfa: sp 0 + .ra: x30
STACK CFI INIT 6e09c 64 .cfa: sp 0 + .ra: x30
STACK CFI INIT 6e100 64 .cfa: sp 0 + .ra: x30
STACK CFI INIT 6e164 48 .cfa: sp 0 + .ra: x30
STACK CFI INIT 6e1ac 48 .cfa: sp 0 + .ra: x30
STACK CFI INIT 6e1f4 48 .cfa: sp 0 + .ra: x30
STACK CFI INIT 6e23c 4 .cfa: sp 0 + .ra: x30
STACK CFI INIT 6e240 130 .cfa: sp 0 + .ra: x30
STACK CFI 6e24c .cfa: x29 16 + .ra: .cfa -8 + ^ x19: .cfa -24 + ^ x20: .cfa -32 + ^ x29: .cfa -16 + ^
STACK CFI INIT 6e370 4 .cfa: sp 0 + .ra: x30
STACK CFI INIT 6e374 a0 .cfa: sp 0 + .ra: x30
STACK CFI 6e384 .cfa: x29 16 + .ra: .cfa -8 + ^ x19: .cfa -24 + ^ x20: .cfa -32 + ^ x21: .cfa -48 + ^ x29: .cfa -16 + ^
STACK CFI INIT 6e414 10 .cfa: sp 0 + .ra: x30
STACK CFI INIT 6e424 4 .cfa: sp 0 + .ra: x30
STACK CFI INIT 6e428 c4 .cfa: sp 0 + .ra: x30
STACK CFI 6e434 .cfa: x29 16 + .ra: .cfa -8 + ^ x19: .cfa -24 + ^ x20: .cfa -32 + ^ x29: .cfa -16 + ^
STACK CFI INIT 6e4ec 10 .cfa: sp 0 + .ra: x30
STACK CFI INIT 6e4fc 4 .cfa: sp 0 + .ra: x30
STACK CFI INIT 6e500 8 .cfa: sp 0 + .ra: x30
STACK CFI INIT 6e508 4 .cfa: sp 0 + .ra: x30
STACK CFI INIT 6e50c e4 .cfa: sp 0 + .ra: x30
STACK CFI 6e518 .cfa: x29 16 + .ra: .cfa -8 + ^ x19: .cfa -24 + ^ x20: .cfa -32 + ^ x29: .cfa -16 + ^
STACK CFI INIT 6e5f0 4 .cfa: sp 0 + .ra: x30
STACK CFI INIT 6e5f4 8 .cfa: sp 0 + .ra: x30
STACK CFI INIT 6e5fc 8 .cfa: sp 0 + .ra: x30
STACK CFI INIT 6e604 f4 .cfa: sp 0 + .ra: x30
STACK CFI 6e610 .cfa: x29 16 + .ra: .cfa -8 + ^ x19: .cfa -24 + ^ x20: .cfa -32 + ^ x29: .cfa -16 + ^
STACK CFI INIT 6e6f8 32c .cfa: sp 0 + .ra: x30
STACK CFI 6e704 .cfa: x29 16 + .ra: .cfa -8 + ^ x19: .cfa -24 + ^ x20: .cfa -32 + ^ x29: .cfa -16 + ^
STACK CFI INIT 6ea24 4 .cfa: sp 0 + .ra: x30
STACK CFI INIT 6ea28 164 .cfa: sp 0 + .ra: x30
STACK CFI 6ea38 .cfa: x29 16 + .ra: .cfa -8 + ^ x19: .cfa -24 + ^ x20: .cfa -32 + ^ x21: .cfa -48 + ^ x29: .cfa -16 + ^
STACK CFI INIT 6eb8c 4 .cfa: sp 0 + .ra: x30
STACK CFI INIT 6eb90 610 .cfa: sp 0 + .ra: x30
STACK CFI 6ebb0 .cfa: x29 16 + .ra: .cfa -8 + ^ x19: .cfa -24 + ^ x20: .cfa -32 + ^ x21: .cfa -40 + ^ x22: .cfa -48 + ^ x23: .cfa -56 + ^ x24: .cfa -64 + ^ x25: .cfa -72 + ^ x26: .cfa -80 + ^ x27: .cfa -88 + ^ x28: .cfa -96 + ^ x29: .cfa -16 + ^
STACK CFI INIT 6f1a0 424 .cfa: sp 0 + .ra: x30
STACK CFI 6f1b4 .cfa: x29 16 + .ra: .cfa -8 + ^ x19: .cfa -24 + ^ x20: .cfa -32 + ^ x21: .cfa -40 + ^ x22: .cfa -48 + ^ x23: .cfa -64 + ^ x29: .cfa -16 + ^
STACK CFI INIT 6f5c4 164 .cfa: sp 0 + .ra: x30
STACK CFI 6f5d8 .cfa: x29 16 + .ra: .cfa -8 + ^ x19: .cfa -24 + ^ x20: .cfa -32 + ^ x21: .cfa -40 + ^ x22: .cfa -48 + ^ x23: .cfa -64 + ^ x29: .cfa -16 + ^
STACK CFI INIT 6f728 110 .cfa: sp 0 + .ra: x30
STACK CFI 6f734 .cfa: x29 16 + .ra: .cfa -8 + ^ x19: .cfa -24 + ^ x20: .cfa -32 + ^ x29: .cfa -16 + ^
STACK CFI INIT 6f838 4 .cfa: sp 0 + .ra: x30
STACK CFI INIT 6f83c dc .cfa: sp 0 + .ra: x30
STACK CFI 6f848 .cfa: x29 16 + .ra: .cfa -8 + ^ x19: .cfa -24 + ^ x20: .cfa -32 + ^ x29: .cfa -16 + ^
STACK CFI INIT 6f918 4 .cfa: sp 0 + .ra: x30
STACK CFI INIT 6f91c 8 .cfa: sp 0 + .ra: x30
STACK CFI INIT 6f924 8 .cfa: sp 0 + .ra: x30
STACK CFI INIT 6f92c 80 .cfa: sp 0 + .ra: x30
STACK CFI 6f938 .cfa: x29 16 + .ra: .cfa -8 + ^ x19: .cfa -32 + ^ x29: .cfa -16 + ^
STACK CFI INIT 6f9ac 378 .cfa: sp 0 + .ra: x30
STACK CFI 6f9b8 .cfa: x29 16 + .ra: .cfa -8 + ^ x19: .cfa -24 + ^ x20: .cfa -32 + ^ x29: .cfa -16 + ^
STACK CFI INIT 6fd24 4 .cfa: sp 0 + .ra: x30
STACK CFI INIT 6fd28 164 .cfa: sp 0 + .ra: x30
STACK CFI 6fd38 .cfa: x29 16 + .ra: .cfa -8 + ^ x19: .cfa -24 + ^ x20: .cfa -32 + ^ x21: .cfa -48 + ^ x29: .cfa -16 + ^
STACK CFI INIT 6fe8c 4 .cfa: sp 0 + .ra: x30
STACK CFI INIT 6fe90 114 .cfa: sp 0 + .ra: x30
STACK CFI 6fea0 .cfa: x29 16 + .ra: .cfa -8 + ^ x19: .cfa -24 + ^ x20: .cfa -32 + ^ x21: .cfa -48 + ^ x29: .cfa -16 + ^
STACK CFI INIT 6ffa4 4 .cfa: sp 0 + .ra: x30
STACK CFI INIT 6ffa8 28 .cfa: sp 0 + .ra: x30
STACK CFI INIT 6ffd0 28 .cfa: sp 0 + .ra: x30
STACK CFI INIT 6fff8 28 .cfa: sp 0 + .ra: x30
STACK CFI INIT 70020 174 .cfa: sp 0 + .ra: x30
STACK CFI 7002c .cfa: x29 16 + .ra: .cfa -8 + ^ x19: .cfa -24 + ^ x20: .cfa -32 + ^ x29: .cfa -16 + ^
STACK CFI INIT 70194 10 .cfa: sp 0 + .ra: x30
STACK CFI INIT 701a4 4 .cfa: sp 0 + .ra: x30
STACK CFI INIT 701a8 144 .cfa: sp 0 + .ra: x30
STACK CFI 701b8 .cfa: x29 16 + .ra: .cfa -8 + ^ x19: .cfa -24 + ^ x20: .cfa -32 + ^ x21: .cfa -48 + ^ x29: .cfa -16 + ^
STACK CFI INIT 702ec 4 .cfa: sp 0 + .ra: x30
STACK CFI INIT 702f0 1b4 .cfa: sp 0 + .ra: x30
STACK CFI 70300 .cfa: x29 16 + .ra: .cfa -8 + ^ x19: .cfa -24 + ^ x20: .cfa -32 + ^ x21: .cfa -48 + ^ x29: .cfa -16 + ^
STACK CFI INIT 704a4 4 .cfa: sp 0 + .ra: x30
STACK CFI INIT 704a8 8 .cfa: sp 0 + .ra: x30
STACK CFI INIT 704b0 8 .cfa: sp 0 + .ra: x30
STACK CFI INIT 704b8 10 .cfa: sp 0 + .ra: x30
STACK CFI INIT 704c8 208 .cfa: sp 0 + .ra: x30
STACK CFI 704dc .cfa: x29 16 + .ra: .cfa -8 + ^ x19: .cfa -24 + ^ x20: .cfa -32 + ^ x21: .cfa -40 + ^ x22: .cfa -48 + ^ x23: .cfa -64 + ^ x29: .cfa -16 + ^
STACK CFI INIT 706d0 4 .cfa: sp 0 + .ra: x30
STACK CFI INIT 706d4 28 .cfa: sp 0 + .ra: x30
STACK CFI INIT 706fc 1b4 .cfa: sp 0 + .ra: x30
STACK CFI 70708 .cfa: x29 16 + .ra: .cfa -8 + ^ x19: .cfa -24 + ^ x20: .cfa -32 + ^ x29: .cfa -16 + ^
STACK CFI INIT 708b0 d4 .cfa: sp 0 + .ra: x30
STACK CFI 708bc .cfa: x29 16 + .ra: .cfa -8 + ^ x19: .cfa -24 + ^ x20: .cfa -32 + ^ x29: .cfa -16 + ^
STACK CFI INIT 70984 4 .cfa: sp 0 + .ra: x30
STACK CFI INIT 70988 13c .cfa: sp 0 + .ra: x30
STACK CFI 7099c .cfa: x29 16 + .ra: .cfa -8 + ^ x19: .cfa -24 + ^ x20: .cfa -32 + ^ x21: .cfa -40 + ^ x22: .cfa -48 + ^ x23: .cfa -64 + ^ x29: .cfa -16 + ^
STACK CFI INIT 70ac4 4 .cfa: sp 0 + .ra: x30
STACK CFI INIT 70ac8 28 .cfa: sp 0 + .ra: x30
STACK CFI INIT 70af0 32c .cfa: sp 0 + .ra: x30
STACK CFI 70b04 .cfa: x29 16 + .ra: .cfa -8 + ^ x19: .cfa -24 + ^ x20: .cfa -32 + ^ x21: .cfa -40 + ^ x22: .cfa -48 + ^ x23: .cfa -64 + ^ x29: .cfa -16 + ^
STACK CFI INIT 70e1c 13c .cfa: sp 0 + .ra: x30
STACK CFI 70e28 .cfa: x29 16 + .ra: .cfa -8 + ^ x19: .cfa -24 + ^ x20: .cfa -32 + ^ x29: .cfa -16 + ^
STACK CFI INIT 70f58 4 .cfa: sp 0 + .ra: x30
STACK CFI INIT 70f5c 28 .cfa: sp 0 + .ra: x30
STACK CFI INIT 70f84 240 .cfa: sp 0 + .ra: x30
STACK CFI 70f94 .cfa: x29 16 + .ra: .cfa -8 + ^ x19: .cfa -24 + ^ x20: .cfa -32 + ^ x21: .cfa -40 + ^ x22: .cfa -48 + ^ x29: .cfa -16 + ^
STACK CFI INIT 711c4 140 .cfa: sp 0 + .ra: x30
STACK CFI 711d4 .cfa: x29 16 + .ra: .cfa -8 + ^ x19: .cfa -24 + ^ x20: .cfa -32 + ^ x21: .cfa -48 + ^ x29: .cfa -16 + ^
STACK CFI INIT 71304 4 .cfa: sp 0 + .ra: x30
STACK CFI INIT 71308 a0 .cfa: sp 0 + .ra: x30
STACK CFI 71318 .cfa: x29 16 + .ra: .cfa -8 + ^ x19: .cfa -24 + ^ x20: .cfa -32 + ^ x21: .cfa -48 + ^ x29: .cfa -16 + ^
STACK CFI INIT 713a8 4 .cfa: sp 0 + .ra: x30
STACK CFI INIT 713ac 28 .cfa: sp 0 + .ra: x30
STACK CFI INIT 713d4 40 .cfa: sp 0 + .ra: x30
STACK CFI INIT 71414 f0 .cfa: sp 0 + .ra: x30
STACK CFI 71418 .cfa: sp 64 + .ra: .cfa -56 + ^ x29: .cfa -64 + ^
STACK CFI 7141c .cfa: x29 64 +
STACK CFI 71420 x19: .cfa -48 + ^ x20: .cfa -40 + ^
STACK CFI 7142c x21: .cfa -32 + ^ x22: .cfa -24 + ^
STACK CFI 714f8 x19: x19 x20: x20
STACK CFI 714fc x21: x21 x22: x22
STACK CFI 71500 .cfa: sp 0 + .ra: .ra x29: x29
STACK CFI INIT 71504 114 .cfa: sp 0 + .ra: x30
STACK CFI INIT 71618 3c .cfa: sp 0 + .ra: x30
STACK CFI 71620 .cfa: sp 16 + .ra: .cfa -8 + ^ x29: .cfa -16 + ^
STACK CFI 71624 .cfa: x29 16 +
STACK CFI 71650 .cfa: sp 0 + .ra: .ra x29: x29
STACK CFI INIT 71654 58 .cfa: sp 0 + .ra: x30
STACK CFI 71658 .cfa: sp 16 + .ra: .cfa -8 + ^ x29: .cfa -16 + ^
STACK CFI 71660 .cfa: x29 16 +
STACK CFI 716a8 .cfa: sp 0 + .ra: .ra x29: x29
STACK CFI INIT 716ac 10c .cfa: sp 0 + .ra: x30
STACK CFI 716b0 .cfa: sp 64 + .ra: .cfa -56 + ^ x29: .cfa -64 + ^
STACK CFI 716b4 .cfa: x29 64 +
STACK CFI 716b8 x21: .cfa -32 + ^ x22: .cfa -24 + ^
STACK CFI 716c4 x19: .cfa -48 + ^ x20: .cfa -40 + ^
STACK CFI 717ac x19: x19 x20: x20
STACK CFI 717b0 x21: x21 x22: x22
STACK CFI 717b4 .cfa: sp 0 + .ra: .ra x29: x29
STACK CFI INIT 717b8 8 .cfa: sp 0 + .ra: x30
STACK CFI INIT 717c0 58 .cfa: sp 0 + .ra: x30
STACK CFI 717c4 .cfa: sp 16 + .ra: .cfa -8 + ^ x29: .cfa -16 + ^
STACK CFI 717cc .cfa: x29 16 +
STACK CFI 71814 .cfa: sp 0 + .ra: .ra x29: x29
STACK CFI INIT 71818 8 .cfa: sp 0 + .ra: x30
STACK CFI INIT 71820 14 .cfa: sp 0 + .ra: x30
STACK CFI INIT 71834 8 .cfa: sp 0 + .ra: x30
STACK CFI INIT 7183c 8 .cfa: sp 0 + .ra: x30
STACK CFI INIT 71844 8 .cfa: sp 0 + .ra: x30
STACK CFI INIT 7184c 28 .cfa: sp 0 + .ra: x30
STACK CFI 71850 .cfa: sp 48 + .ra: .cfa -40 + ^ x29: .cfa -48 + ^
STACK CFI 71858 .cfa: x29 48 +
STACK CFI 7186c .cfa: sp 0 + .ra: .ra x29: x29
STACK CFI INIT 71874 8 .cfa: sp 0 + .ra: x30
STACK CFI INIT 7187c 8 .cfa: sp 0 + .ra: x30
STACK CFI INIT 71884 78 .cfa: sp 0 + .ra: x30
STACK CFI 71888 .cfa: sp 16 + .ra: .cfa -8 + ^ x29: .cfa -16 + ^
STACK CFI 71898 .cfa: x29 16 +
STACK CFI 718d8 .cfa: sp 0 + .ra: .ra x29: x29
STACK CFI 718dc .cfa: x29 16 + .ra: .cfa -8 + ^ x29: .cfa -16 + ^
STACK CFI 718e0 .cfa: sp 0 + .ra: .ra x29: x29
STACK CFI 718e4 .cfa: x29 16 + .ra: .cfa -8 + ^ x29: .cfa -16 + ^
STACK CFI 718e8 .cfa: sp 0 + .ra: .ra x29: x29
STACK CFI 718ec .cfa: x29 16 + .ra: .cfa -8 + ^ x29: .cfa -16 + ^
STACK CFI 718f8 .cfa: sp 0 + .ra: .ra x29: x29
STACK CFI INIT 718fc 4f8 .cfa: sp 0 + .ra: x30
STACK CFI 71900 .cfa: sp 144 + .ra: .cfa -136 + ^ x29: .cfa -144 + ^
STACK CFI 71904 .cfa: x29 144 +
STACK CFI 71918 x19: .cfa -128 + ^ x20: .cfa -120 + ^ x21: .cfa -112 + ^ x22: .cfa -104 + ^ x23: .cfa -96 + ^ x24: .cfa -88 + ^ x25: .cfa -80 + ^ x26: .cfa -72 + ^ x27: .cfa -64 + ^ x28: .cfa -56 + ^
STACK CFI 71dd8 .cfa: sp 144 +
STACK CFI 71ddc x19: x19 x20: x20
STACK CFI 71de0 x21: x21 x22: x22
STACK CFI 71de4 x23: x23 x24: x24
STACK CFI 71de8 x25: x25 x26: x26
STACK CFI 71dec x27: x27 x28: x28
STACK CFI 71df0 .cfa: sp 0 + .ra: .ra x29: x29
STACK CFI INIT 71df4 424 .cfa: sp 0 + .ra: x30
STACK CFI 71df8 .cfa: sp 144 + .ra: .cfa -136 + ^ x29: .cfa -144 + ^
STACK CFI 71e00 .cfa: x29 144 +
STACK CFI 71e04 x19: .cfa -128 + ^ x20: .cfa -120 + ^
STACK CFI 71e24 x21: .cfa -112 + ^ x22: .cfa -104 + ^ x23: .cfa -96 + ^ x24: .cfa -88 + ^ x25: .cfa -80 + ^ x26: .cfa -72 + ^ x27: .cfa -64 + ^
STACK CFI 72200 x19: x19 x20: x20
STACK CFI 72204 x21: x21 x22: x22
STACK CFI 72208 x23: x23 x24: x24
STACK CFI 7220c x25: x25 x26: x26
STACK CFI 72210 x27: x27
STACK CFI 72214 .cfa: sp 0 + .ra: .ra x29: x29
STACK CFI INIT 72218 5b4 .cfa: sp 0 + .ra: x30
STACK CFI 7221c .cfa: sp 560 +
STACK CFI 72224 .cfa: sp 656 + .ra: .cfa -648 + ^ x29: .cfa -656 + ^
STACK CFI 72228 .cfa: x29 656 +
STACK CFI 7222c x27: .cfa -576 + ^ x28: .cfa -568 + ^
STACK CFI 72238 x21: .cfa -624 + ^ x22: .cfa -616 + ^ x23: .cfa -608 + ^ x24: .cfa -600 + ^
STACK CFI 72248 x19: .cfa -640 + ^ x20: .cfa -632 + ^ x25: .cfa -592 + ^ x26: .cfa -584 + ^
STACK CFI 727ac x19: x19 x20: x20
STACK CFI 727b0 x21: x21 x22: x22
STACK CFI 727b8 x23: x23 x24: x24
STACK CFI 727bc x25: x25 x26: x26
STACK CFI 727c0 x27: x27 x28: x28
STACK CFI 727c4 .cfa: sp 560 + .ra: .ra x29: x29
STACK CFI 727c8 .cfa: sp 464 +
STACK CFI INIT 727cc 20c .cfa: sp 0 + .ra: x30
STACK CFI 727d0 .cfa: sp 992 +
STACK CFI 727d8 .cfa: sp 1088 + .ra: .cfa -1080 + ^ x29: .cfa -1088 + ^
STACK CFI 727dc .cfa: x29 1088 +
STACK CFI 727e4 x19: .cfa -1072 + ^ x20: .cfa -1064 + ^ x21: .cfa -1056 + ^ x22: .cfa -1048 + ^
STACK CFI 727f4 x23: .cfa -1040 + ^ x24: .cfa -1032 + ^
STACK CFI 72804 x25: .cfa -1024 + ^ x26: .cfa -1016 + ^ x27: .cfa -1008 + ^ x28: .cfa -1000 + ^
STACK CFI 729bc x21: x21 x22: x22
STACK CFI 729c0 x19: x19 x20: x20
STACK CFI 729c4 x23: x23 x24: x24
STACK CFI 729c8 x25: x25 x26: x26
STACK CFI 729cc x27: x27 x28: x28
STACK CFI 729d0 .cfa: sp 992 + .ra: .ra x29: x29
STACK CFI 729d4 .cfa: sp 896 +
STACK CFI INIT 729d8 dc .cfa: sp 0 + .ra: x30
STACK CFI 729dc .cfa: sp 1680 +
STACK CFI 729e0 .cfa: sp 1744 + .ra: .cfa -1736 + ^ x29: .cfa -1744 + ^
STACK CFI 729e4 .cfa: x29 1744 +
STACK CFI 729ec x19: .cfa -1728 + ^ x20: .cfa -1720 + ^ x21: .cfa -1712 + ^ x22: .cfa -1704 + ^
STACK CFI 729f4 x23: .cfa -1696 + ^
STACK CFI 72aa0 x23: x23
STACK CFI 72aa4 x19: x19 x20: x20
STACK CFI 72aa8 x21: x21 x22: x22
STACK CFI 72aac .cfa: sp 1680 + .ra: .ra x29: x29
STACK CFI 72ab0 .cfa: sp 1616 +
STACK CFI INIT 72ab4 4c .cfa: sp 0 + .ra: x30
STACK CFI 72ab8 .cfa: sp 32 + .ra: .cfa -24 + ^ x29: .cfa -32 + ^
STACK CFI 72abc .cfa: x29 32 +
STACK CFI 72ac0 x19: .cfa -16 + ^ x20: .cfa -8 + ^
STACK CFI 72af8 x19: x19 x20: x20
STACK CFI 72afc .cfa: sp 0 + .ra: .ra x29: x29
STACK CFI INIT 72b00 c0 .cfa: sp 0 + .ra: x30
STACK CFI 72b04 .cfa: sp 1664 +
STACK CFI 72b08 .cfa: sp 1728 + .ra: .cfa -1720 + ^ x29: .cfa -1728 + ^
STACK CFI 72b0c .cfa: x29 1728 +
STACK CFI 72b18 x19: .cfa -1712 + ^ x20: .cfa -1704 + ^ x21: .cfa -1696 + ^ x22: .cfa -1688 + ^ x23: .cfa -1680 + ^ x24: .cfa -1672 + ^
STACK CFI 72bac x19: x19 x20: x20
STACK CFI 72bb0 x21: x21 x22: x22
STACK CFI 72bb4 x23: x23 x24: x24
STACK CFI 72bb8 .cfa: sp 1664 + .ra: .ra x29: x29
STACK CFI 72bbc .cfa: sp 1600 +
STACK CFI INIT 72bc0 ec .cfa: sp 0 + .ra: x30
STACK CFI 72bc4 .cfa: sp 1664 +
STACK CFI 72bc8 .cfa: sp 1744 + .ra: .cfa -1736 + ^ x29: .cfa -1744 + ^
STACK CFI 72bcc .cfa: x29 1744 +
STACK CFI 72bd0 x23: .cfa -1696 + ^ x24: .cfa -1688 + ^
STACK CFI 72be4 x19: .cfa -1728 + ^ x20: .cfa -1720 + ^ x21: .cfa -1712 + ^ x22: .cfa -1704 + ^ x25: .cfa -1680 + ^ x26: .cfa -1672 + ^
STACK CFI 72c94 x19: x19 x20: x20
STACK CFI 72c98 x21: x21 x22: x22
STACK CFI 72c9c x23: x23 x24: x24
STACK CFI 72ca0 x25: x25 x26: x26
STACK CFI 72ca4 .cfa: sp 1664 + .ra: .ra x29: x29
STACK CFI 72ca8 .cfa: sp 1584 +
STACK CFI INIT 72cac f4 .cfa: sp 0 + .ra: x30
STACK CFI 72cb0 .cfa: sp 2624 +
STACK CFI 72cb8 .cfa: sp 2672 + .ra: .cfa -2664 + ^ x29: .cfa -2672 + ^
STACK CFI 72cbc .cfa: x29 2672 +
STACK CFI 72cc0 x19: .cfa -2656 + ^ x20: .cfa -2648 + ^
STACK CFI 72cc8 x21: .cfa -2640 + ^
STACK CFI 72d8c x19: x19 x20: x20
STACK CFI 72d90 x21: x21
STACK CFI 72d94 .cfa: sp 2624 + .ra: .ra x29: x29
STACK CFI 72d9c .cfa: sp 2576 +
STACK CFI INIT 72da0 4 .cfa: sp 0 + .ra: x30
STACK CFI INIT 72da4 178 .cfa: sp 0 + .ra: x30
STACK CFI 72da8 .cfa: sp 3600 +
STACK CFI 72dac .cfa: sp 3792 + .ra: .cfa -3784 + ^ x29: .cfa -3792 + ^
STACK CFI 72db0 .cfa: x29 3792 +
STACK CFI 72db8 v8: .cfa -3664 + ^ v9: .cfa -3656 + ^ x21: .cfa -3728 + ^ x22: .cfa -3720 + ^
STACK CFI 72dd4 v10: .cfa -3648 + ^ v11: .cfa -3640 + ^ v12: .cfa -3632 + ^ v13: .cfa -3624 + ^ v14: .cfa -3616 + ^ v15: .cfa -3608 + ^ x0: .cfa -3776 + ^ x1: .cfa -3768 + ^ x19: .cfa -3744 + ^ x2: .cfa -3760 + ^ x20: .cfa -3736 + ^ x3: .cfa -3752 + ^
STACK CFI 72df0 x23: .cfa -3712 + ^ x24: .cfa -3704 + ^ x25: .cfa -3696 + ^ x26: .cfa -3688 + ^ x27: .cfa -3680 + ^ x28: .cfa -3672 + ^
STACK CFI 72ee0 x2: x2 x3: x3
STACK CFI 72ee4 v8: v8 v9: v9
STACK CFI 72ee8 x19: x19 x20: x20
STACK CFI 72eec v10: v10 v11: v11
STACK CFI 72ef0 x21: x21 x22: x22
STACK CFI 72ef4 v12: v12 v13: v13
STACK CFI 72ef8 x23: x23 x24: x24
STACK CFI 72efc v14: v14 v15: v15
STACK CFI 72f00 x25: x25 x26: x26
STACK CFI 72f04 x27: x27 x28: x28
STACK CFI 72f08 x0: x0 x1: x1
STACK CFI 72f0c .cfa: sp 3600 + .ra: .ra x29: x29
STACK CFI 72f10 .cfa: x16 0 +
STACK CFI INIT 72f1c f4 .cfa: sp 0 + .ra: x30
STACK CFI 72f20 .cfa: sp 1936 +
STACK CFI 72f24 .cfa: sp 2128 + .ra: .cfa -2120 + ^ x29: .cfa -2128 + ^
STACK CFI 72f28 .cfa: x29 2128 +
STACK CFI 72f30 v8: .cfa -2000 + ^ v9: .cfa -1992 + ^ x19: .cfa -2080 + ^ x20: .cfa -2072 + ^
STACK CFI 72f50 v10: .cfa -1984 + ^ v11: .cfa -1976 + ^ v12: .cfa -1968 + ^ v13: .cfa -1960 + ^ v14: .cfa -1952 + ^ v15: .cfa -1944 + ^ x0: .cfa -2112 + ^ x1: .cfa -2104 + ^ x2: .cfa -2096 + ^ x21: .cfa -2064 + ^ x22: .cfa -2056 + ^ x23: .cfa -2048 + ^ x24: .cfa -2040 + ^ x3: .cfa -2088 + ^
STACK CFI 72f74 x25: .cfa -2032 + ^ x26: .cfa -2024 + ^ x27: .cfa -2016 + ^ x28: .cfa -2008 + ^
STACK CFI 72fd4 x2: x2 x3: x3
STACK CFI 72fd8 v8: v8 v9: v9
STACK CFI 72fdc x19: x19 x20: x20
STACK CFI 72fe0 v10: v10 v11: v11
STACK CFI 72fe4 x21: x21 x22: x22
STACK CFI 72fe8 v12: v12 v13: v13
STACK CFI 72fec x23: x23 x24: x24
STACK CFI 72ff0 v14: v14 v15: v15
STACK CFI 72ff4 x25: x25 x26: x26
STACK CFI 72ff8 x27: x27 x28: x28
STACK CFI 72ffc x0: x0 x1: x1
STACK CFI 73000 .cfa: sp 1936 + .ra: .ra x29: x29
STACK CFI 73004 .cfa: x16 0 +
STACK CFI INIT 73010 fc .cfa: sp 0 + .ra: x30
STACK CFI 73014 .cfa: sp 1936 +
STACK CFI 73018 .cfa: sp 2128 + .ra: .cfa -2120 + ^ x29: .cfa -2128 + ^
STACK CFI 7301c .cfa: x29 2128 +
STACK CFI 73024 v8: .cfa -2000 + ^ v9: .cfa -1992 + ^ x19: .cfa -2080 + ^ x20: .cfa -2072 + ^
STACK CFI 7303c v10: .cfa -1984 + ^ v11: .cfa -1976 + ^ v12: .cfa -1968 + ^ v13: .cfa -1960 + ^ v14: .cfa -1952 + ^ v15: .cfa -1944 + ^ x0: .cfa -2112 + ^ x1: .cfa -2104 + ^ x2: .cfa -2096 + ^ x3: .cfa -2088 + ^
STACK CFI 73048 x21: .cfa -2064 + ^ x22: .cfa -2056 + ^
STACK CFI 7305c x23: .cfa -2048 + ^ x24: .cfa -2040 + ^ x25: .cfa -2032 + ^ x26: .cfa -2024 + ^ x27: .cfa -2016 + ^ x28: .cfa -2008 + ^
STACK CFI 730d0 v8: v8 v9: v9
STACK CFI 730d4 x0: x0 x1: x1
STACK CFI 730d8 v10: v10 v11: v11
STACK CFI 730dc x2: x2 x3: x3
STACK CFI 730e0 v12: v12 v13: v13
STACK CFI 730e4 x19: x19 x20: x20
STACK CFI 730e8 v14: v14 v15: v15
STACK CFI 730ec x21: x21 x22: x22
STACK CFI 730f0 x23: x23 x24: x24
STACK CFI 730f4 x25: x25 x26: x26
STACK CFI 730f8 x27: x27 x28: x28
STACK CFI 730fc .cfa: sp 1936 + .ra: .ra x29: x29
STACK CFI 73100 .cfa: x16 0 +
STACK CFI INIT 7310c f8 .cfa: sp 0 + .ra: x30
STACK CFI 73110 .cfa: sp 1936 +
STACK CFI 73114 .cfa: sp 2128 + .ra: .cfa -2120 + ^ x29: .cfa -2128 + ^
STACK CFI 73118 .cfa: x29 2128 +
STACK CFI 73124 v10: .cfa -1984 + ^ v11: .cfa -1976 + ^ v8: .cfa -2000 + ^ v9: .cfa -1992 + ^ x0: .cfa -2112 + ^ x1: .cfa -2104 + ^
STACK CFI 73148 v12: .cfa -1968 + ^ v13: .cfa -1960 + ^ v14: .cfa -1952 + ^ v15: .cfa -1944 + ^ x19: .cfa -2080 + ^ x2: .cfa -2096 + ^ x20: .cfa -2072 + ^ x21: .cfa -2064 + ^ x22: .cfa -2056 + ^ x23: .cfa -2048 + ^ x24: .cfa -2040 + ^ x25: .cfa -2032 + ^ x26: .cfa -2024 + ^ x27: .cfa -2016 + ^ x28: .cfa -2008 + ^ x3: .cfa -2088 + ^
STACK CFI 731c8 x2: x2 x3: x3
STACK CFI 731cc v8: v8 v9: v9
STACK CFI 731d0 x19: x19 x20: x20
STACK CFI 731d4 v10: v10 v11: v11
STACK CFI 731d8 x21: x21 x22: x22
STACK CFI 731dc v12: v12 v13: v13
STACK CFI 731e0 x23: x23 x24: x24
STACK CFI 731e4 v14: v14 v15: v15
STACK CFI 731e8 x25: x25 x26: x26
STACK CFI 731ec x27: x27 x28: x28
STACK CFI 731f0 x0: x0 x1: x1
STACK CFI 731f4 .cfa: sp 1936 + .ra: .ra x29: x29
STACK CFI 731f8 .cfa: x16 0 +
STACK CFI INIT 73204 24 .cfa: sp 0 + .ra: x30
STACK CFI 73208 .cfa: sp 16 + .ra: .cfa -8 + ^ x29: .cfa -16 + ^
STACK CFI 7320c .cfa: x29 16 +
STACK CFI 73224 .cfa: sp 0 + .ra: .ra x29: x29
STACK CFI INIT 73228 d0 .cfa: sp 0 + .ra: x30
STACK CFI 7322c .cfa: sp 2624 +
STACK CFI 73234 .cfa: sp 2784 + .ra: .cfa -2776 + ^ x29: .cfa -2784 + ^
STACK CFI 73238 .cfa: x29 2784 +
STACK CFI 73240 v8: .cfa -2688 + ^ v9: .cfa -2680 + ^ x19: .cfa -2768 + ^ x20: .cfa -2760 + ^
STACK CFI 73258 v10: .cfa -2672 + ^ v11: .cfa -2664 + ^ v12: .cfa -2656 + ^ v13: .cfa -2648 + ^ v14: .cfa -2640 + ^ v15: .cfa -2632 + ^ x21: .cfa -2752 + ^ x22: .cfa -2744 + ^ x23: .cfa -2736 + ^ x24: .cfa -2728 + ^
STACK CFI 73274 x25: .cfa -2720 + ^ x26: .cfa -2712 + ^ x27: .cfa -2704 + ^ x28: .cfa -2696 + ^
STACK CFI 732cc x19: x19 x20: x20
STACK CFI 732d0 v8: v8 v9: v9
STACK CFI 732d4 x21: x21 x22: x22
STACK CFI 732d8 v10: v10 v11: v11
STACK CFI 732dc x23: x23 x24: x24
STACK CFI 732e0 v12: v12 v13: v13
STACK CFI 732e4 x25: x25 x26: x26
STACK CFI 732e8 v14: v14 v15: v15
STACK CFI 732ec x27: x27 x28: x28
STACK CFI 732f0 .cfa: sp 2624 + .ra: .ra x29: x29
STACK CFI 732f4 .cfa: sp 2464 +
STACK CFI INIT 732f8 28 .cfa: sp 0 + .ra: x30
STACK CFI INIT 73320 40 .cfa: sp 0 + .ra: x30
STACK CFI INIT 73360 1c .cfa: sp 0 + .ra: x30
STACK CFI INIT 7337c c0 .cfa: sp 0 + .ra: x30
STACK CFI 73380 .cfa: sp 96 + .ra: .cfa -88 + ^ x29: .cfa -96 + ^
STACK CFI 73384 .cfa: x29 96 +
STACK CFI 73388 x19: .cfa -80 + ^ x20: .cfa -72 + ^
STACK CFI 73398 x21: .cfa -64 + ^ x22: .cfa -56 + ^ x23: .cfa -48 + ^ x24: .cfa -40 + ^ x25: .cfa -32 + ^
STACK CFI 73428 x19: x19 x20: x20
STACK CFI 7342c x21: x21 x22: x22
STACK CFI 73430 x23: x23 x24: x24
STACK CFI 73434 x25: x25
STACK CFI 73438 .cfa: sp 0 + .ra: .ra x29: x29
STACK CFI INIT 7343c b4 .cfa: sp 0 + .ra: x30
STACK CFI 73440 .cfa: sp 80 + .ra: .cfa -72 + ^ x29: .cfa -80 + ^
STACK CFI 73444 .cfa: x29 80 +
STACK CFI 73448 x19: .cfa -64 + ^ x20: .cfa -56 + ^
STACK CFI 73458 x21: .cfa -48 + ^ x22: .cfa -40 + ^ x23: .cfa -32 + ^ x24: .cfa -24 + ^ x25: .cfa -16 + ^
STACK CFI 734dc x19: x19 x20: x20
STACK CFI 734e0 x21: x21 x22: x22
STACK CFI 734e4 x23: x23 x24: x24
STACK CFI 734e8 x25: x25
STACK CFI 734ec .cfa: sp 0 + .ra: .ra x29: x29
STACK CFI INIT 734f0 60 .cfa: sp 0 + .ra: x30
STACK CFI 734f4 .cfa: sp 16 + .ra: .cfa -8 + ^ x29: .cfa -16 + ^
STACK CFI 73500 .cfa: x29 16 +
STACK CFI 7354c .cfa: sp 0 + .ra: .ra x29: x29
STACK CFI INIT 73550 60 .cfa: sp 0 + .ra: x30
STACK CFI 73554 .cfa: sp 16 + .ra: .cfa -8 + ^ x29: .cfa -16 + ^
STACK CFI 73560 .cfa: x29 16 +
STACK CFI 735ac .cfa: sp 0 + .ra: .ra x29: x29
STACK CFI INIT 735b0 60 .cfa: sp 0 + .ra: x30
STACK CFI 735b4 .cfa: sp 16 + .ra: .cfa -8 + ^ x29: .cfa -16 + ^
STACK CFI 735c0 .cfa: x29 16 +
STACK CFI 7360c .cfa: sp 0 + .ra: .ra x29: x29
STACK CFI INIT 73610 f0 .cfa: sp 0 + .ra: x30
STACK CFI 73614 .cfa: sp 64 + .ra: .cfa -56 + ^ x29: .cfa -64 + ^
STACK CFI 73618 .cfa: x29 64 +
STACK CFI 7361c x19: .cfa -48 + ^ x20: .cfa -40 + ^
STACK CFI 73628 x21: .cfa -32 + ^ x22: .cfa -24 + ^
STACK CFI 736f4 x19: x19 x20: x20
STACK CFI 736f8 x21: x21 x22: x22
STACK CFI 736fc .cfa: sp 0 + .ra: .ra x29: x29
STACK CFI INIT 73700 90 .cfa: sp 0 + .ra: x30
STACK CFI 73704 .cfa: sp 80 + .ra: .cfa -72 + ^ x29: .cfa -80 + ^
STACK CFI 73708 .cfa: x29 80 +
STACK CFI 7370c x19: .cfa -64 + ^ x20: .cfa -56 + ^
STACK CFI 73718 x23: .cfa -32 + ^
STACK CFI 7372c x21: .cfa -48 + ^ x22: .cfa -40 + ^
STACK CFI 73768 x23: x23
STACK CFI 73774 x19: x19 x20: x20
STACK CFI 73784 x21: x21 x22: x22
STACK CFI 7378c .cfa: sp 0 + .ra: .ra x29: x29
STACK CFI INIT 73790 fc .cfa: sp 0 + .ra: x30
STACK CFI 73794 .cfa: sp 64 + .ra: .cfa -56 + ^ x29: .cfa -64 + ^
STACK CFI 73798 .cfa: x29 64 +
STACK CFI 7379c x19: .cfa -48 + ^ x20: .cfa -40 + ^
STACK CFI 73884 x19: x19 x20: x20
STACK CFI 73888 .cfa: sp 0 + .ra: .ra x29: x29
STACK CFI INIT 7388c 160 .cfa: sp 0 + .ra: x30
STACK CFI 73890 .cfa: sp 112 + .ra: .cfa -104 + ^ x29: .cfa -112 + ^
STACK CFI 73894 .cfa: x29 112 +
STACK CFI 73898 x21: .cfa -80 + ^ x22: .cfa -72 + ^
STACK CFI 738a8 x19: .cfa -96 + ^ x20: .cfa -88 + ^
STACK CFI 738bc x23: .cfa -64 + ^ x24: .cfa -56 + ^ x25: .cfa -48 + ^ x26: .cfa -40 + ^ x27: .cfa -32 + ^ x28: .cfa -24 + ^
STACK CFI 739d4 x19: x19 x20: x20
STACK CFI 739d8 x21: x21 x22: x22
STACK CFI 739dc x23: x23 x24: x24
STACK CFI 739e0 x25: x25 x26: x26
STACK CFI 739e4 x27: x27 x28: x28
STACK CFI 739e8 .cfa: sp 0 + .ra: .ra x29: x29
STACK CFI INIT 739ec 10 .cfa: sp 0 + .ra: x30
STACK CFI INIT 739fc 41c .cfa: sp 0 + .ra: x30
STACK CFI 73a00 .cfa: sp 144 + .ra: .cfa -136 + ^ x29: .cfa -144 + ^
STACK CFI 73a08 .cfa: x29 144 +
STACK CFI 73a14 x19: .cfa -128 + ^ x20: .cfa -120 + ^ x21: .cfa -112 + ^ x22: .cfa -104 + ^ x23: .cfa -96 + ^ x24: .cfa -88 + ^
STACK CFI 73e08 x19: x19 x20: x20
STACK CFI 73e0c x21: x21 x22: x22
STACK CFI 73e10 x23: x23 x24: x24
STACK CFI 73e14 .cfa: sp 0 + .ra: .ra x29: x29
STACK CFI INIT 73e18 9c .cfa: sp 0 + .ra: x30
STACK CFI 73e1c .cfa: sp 64 + .ra: .cfa -56 + ^ x29: .cfa -64 + ^
STACK CFI 73e20 .cfa: x29 64 +
STACK CFI 73e24 x21: .cfa -32 + ^ x22: .cfa -24 + ^
STACK CFI 73e30 x19: .cfa -48 + ^ x20: .cfa -40 + ^
STACK CFI 73e98 x19: x19 x20: x20
STACK CFI 73ea8 x21: x21 x22: x22
STACK CFI 73eb0 .cfa: sp 0 + .ra: .ra x29: x29
STACK CFI INIT 73eb4 160 .cfa: sp 0 + .ra: x30
STACK CFI 73eb8 .cfa: sp 112 + .ra: .cfa -104 + ^ x29: .cfa -112 + ^
STACK CFI 73ebc .cfa: x29 112 +
STACK CFI 73ecc x19: .cfa -96 + ^ x20: .cfa -88 + ^ x21: .cfa -80 + ^ x22: .cfa -72 + ^ x23: .cfa -64 + ^ x24: .cfa -56 + ^ x25: .cfa -48 + ^ x26: .cfa -40 + ^
STACK CFI 73ed4 x27: .cfa -32 + ^
STACK CFI 73ffc x19: x19 x20: x20
STACK CFI 74000 x21: x21 x22: x22
STACK CFI 74004 x23: x23 x24: x24
STACK CFI 74008 x25: x25 x26: x26
STACK CFI 7400c x27: x27
STACK CFI 74010 .cfa: sp 0 + .ra: .ra x29: x29
STACK CFI INIT 74014 134 .cfa: sp 0 + .ra: x30
STACK CFI 74018 .cfa: sp 112 + .ra: .cfa -104 + ^ x29: .cfa -112 + ^
STACK CFI 7401c .cfa: x29 112 +
STACK CFI 74020 x21: .cfa -80 + ^ x22: .cfa -72 + ^
STACK CFI 74030 x23: .cfa -64 + ^ x24: .cfa -56 + ^
STACK CFI 74044 x19: .cfa -96 + ^ x20: .cfa -88 + ^ x25: .cfa -48 + ^ x26: .cfa -40 + ^ x27: .cfa -32 + ^
STACK CFI 74130 x19: x19 x20: x20
STACK CFI 74134 x21: x21 x22: x22
STACK CFI 74138 x23: x23 x24: x24
STACK CFI 7413c x25: x25 x26: x26
STACK CFI 74140 x27: x27
STACK CFI 74144 .cfa: sp 0 + .ra: .ra x29: x29
STACK CFI INIT 74148 570 .cfa: sp 0 + .ra: x30
STACK CFI 7414c .cfa: sp 144 + .ra: .cfa -136 + ^ x29: .cfa -144 + ^
STACK CFI 74150 .cfa: x29 144 +
STACK CFI 74154 x21: .cfa -112 + ^ x22: .cfa -104 + ^
STACK CFI 7416c x19: .cfa -128 + ^ x20: .cfa -120 + ^ x23: .cfa -96 + ^ x24: .cfa -88 + ^ x25: .cfa -80 + ^ x26: .cfa -72 + ^ x27: .cfa -64 + ^ x28: .cfa -56 + ^
STACK CFI 746a0 x19: x19 x20: x20
STACK CFI 746a4 x21: x21 x22: x22
STACK CFI 746a8 x23: x23 x24: x24
STACK CFI 746ac x25: x25 x26: x26
STACK CFI 746b0 x27: x27 x28: x28
STACK CFI 746b4 .cfa: sp 0 + .ra: .ra x29: x29
STACK CFI INIT 746b8 9c .cfa: sp 0 + .ra: x30
STACK CFI 746bc .cfa: sp 48 + .ra: .cfa -40 + ^ x29: .cfa -48 + ^
STACK CFI 746c0 .cfa: x29 48 +
STACK CFI 746c8 x19: .cfa -32 + ^ x20: .cfa -24 + ^ x21: .cfa -16 + ^
STACK CFI 74734 x19: x19 x20: x20
STACK CFI 74738 x21: x21
STACK CFI 74740 .cfa: sp 0 + .ra: .ra x29: x29
STACK CFI 74744 .cfa: x29 48 + .ra: .cfa -40 + ^ x19: .cfa -32 + ^ x20: .cfa -24 + ^ x21: .cfa -16 + ^ x29: .cfa -48 + ^
STACK CFI 74748 x19: x19 x20: x20
STACK CFI 7474c x21: x21
STACK CFI 74750 .cfa: sp 0 + .ra: .ra x29: x29
STACK CFI INIT 74754 c .cfa: sp 0 + .ra: x30
STACK CFI INIT 74760 40 .cfa: sp 0 + .ra: x30
STACK CFI 74764 .cfa: sp 32 + .ra: .cfa -24 + ^ x29: .cfa -32 + ^
STACK CFI 74768 .cfa: x29 32 +
STACK CFI 74770 x19: .cfa -16 + ^
STACK CFI 7478c x19: x19
STACK CFI 74790 .cfa: sp 0 + .ra: .ra x29: x29
STACK CFI 74794 .cfa: x29 32 + .ra: .cfa -24 + ^ x19: .cfa -16 + ^ x29: .cfa -32 + ^
STACK CFI 74798 x19: x19
STACK CFI 7479c .cfa: sp 0 + .ra: .ra x29: x29
STACK CFI INIT 747a0 94 .cfa: sp 0 + .ra: x30
STACK CFI 747a4 .cfa: sp 48 + .ra: .cfa -40 + ^ x29: .cfa -48 + ^
STACK CFI 747ac .cfa: x29 48 +
STACK CFI 747b0 x19: .cfa -32 + ^ x20: .cfa -24 + ^
STACK CFI 7481c x19: x19 x20: x20
STACK CFI 74820 .cfa: sp 0 + .ra: .ra x29: x29
STACK CFI 74828 .cfa: x29 48 + .ra: .cfa -40 + ^ x19: .cfa -32 + ^ x20: .cfa -24 + ^ x29: .cfa -48 + ^
STACK CFI 7482c x19: x19 x20: x20
STACK CFI 74830 .cfa: sp 0 + .ra: .ra x29: x29
STACK CFI INIT 74834 c .cfa: sp 0 + .ra: x30
STACK CFI INIT 74840 2c .cfa: sp 0 + .ra: x30
STACK CFI 74844 .cfa: sp 32 + .ra: .cfa -24 + ^ x29: .cfa -32 + ^
STACK CFI 74848 .cfa: x29 32 +
STACK CFI 7484c x19: .cfa -16 + ^
STACK CFI 74864 x19: x19
STACK CFI 74868 .cfa: sp 0 + .ra: .ra x29: x29
STACK CFI INIT 7486c 100 .cfa: sp 0 + .ra: x30
STACK CFI 74870 .cfa: sp 48 + .ra: .cfa -40 + ^ x29: .cfa -48 + ^
STACK CFI 74874 .cfa: x29 48 +
STACK CFI 7487c x19: .cfa -32 + ^ x20: .cfa -24 + ^ x21: .cfa -16 + ^ x22: .cfa -8 + ^
STACK CFI 74960 x19: x19 x20: x20
STACK CFI 74964 x21: x21 x22: x22
STACK CFI 74968 .cfa: sp 0 + .ra: .ra x29: x29
STACK CFI INIT 7496c 4 .cfa: sp 0 + .ra: x30
STACK CFI INIT 74970 24 .cfa: sp 0 + .ra: x30
STACK CFI 74974 .cfa: sp 16 + .ra: .cfa -8 + ^ x29: .cfa -16 + ^
STACK CFI 74978 .cfa: x29 16 +
STACK CFI 74988 .cfa: sp 0 + .ra: .ra x29: x29
STACK CFI 7498c .cfa: x29 16 + .ra: .cfa -8 + ^ x29: .cfa -16 + ^
STACK CFI 74990 .cfa: sp 0 + .ra: .ra x29: x29
STACK CFI INIT 74994 1c4 .cfa: sp 0 + .ra: x30
STACK CFI 74998 .cfa: sp 128 + .ra: .cfa -120 + ^ x29: .cfa -128 + ^
STACK CFI 7499c .cfa: x29 128 +
STACK CFI 749a0 x21: .cfa -96 + ^ x22: .cfa -88 + ^
STACK CFI 749ac x23: .cfa -80 + ^ x24: .cfa -72 + ^ x25: .cfa -64 + ^
STACK CFI 749c0 x19: .cfa -112 + ^ x20: .cfa -104 + ^
STACK CFI 74b44 x25: x25
STACK CFI 74b48 x19: x19 x20: x20
STACK CFI 74b4c x21: x21 x22: x22
STACK CFI 74b50 x23: x23 x24: x24
STACK CFI 74b54 .cfa: sp 0 + .ra: .ra x29: x29
